(dp1
S'Levels'
p2
(lp3
(dp4
(I7
I3
tp5
I8
s(I5
I31
tp6
I11
s(I20
I25
tp7
I8
s(I3
I35
tp8
I8
s(I16
I9
tp9
I11
s(I21
I28
tp10
I8
s(I4
I36
tp11
I8
s(I19
I4
tp12
I60
s(I17
I20
tp13
I8
s(I22
I19
tp14
I8
s(I20
I7
tp15
I8
s(I18
I19
tp16
I8
s(I23
I26
tp17
I60
s(I21
I6
tp18
I8
s(I8
I5
tp19
I60
s(I13
I32
tp20
I8
s(I9
I0
tp21
I11
s(I14
I31
tp22
I11
s(I10
I7
tp23
I8
s(I11
I22
tp24
I8
s(I24
I14
tp25
I11
s(I14
I1
tp26
I8
s(I15
I4
tp27
I8
s(I3
I2
tp28
I8
s(I15
I34
tp29
I60
s(I4
I5
tp30
I60
s(I19
I39
tp31
I11
s(I20
I32
tp32
I8
s(I16
I0
tp33
I11
s(I21
I37
tp34
I8
s(I4
I35
tp35
I8
s(I19
I13
tp36
I60
s(I17
I13
tp37
I8
s(I5
I34
tp38
I60
s(I20
I14
tp39
I8
s(I18
I10
tp40
I8
s(I16
I38
tp41
I8
s(I21
I15
tp42
I3
s(I10
I36
tp43
I8
s(I17
I39
tp44
I11
s(I22
I12
tp45
I8
s(I18
I36
tp46
I8
s(I23
I9
tp47
I8
s(I24
I21
tp48
I11
s(I14
I8
tp49
I11
s(I12
I8
tp50
I11
s(I0
I36
tp51
I11
s(I24
I33
tp52
I11
s(I5
I1
tp53
I8
s(I1
I33
tp54
I8
s(I16
I7
tp55
I8
s(I19
I18
tp56
I60
s(I2
I38
tp57
I8
s(I17
I6
tp58
I8
s(I20
I21
tp59
I8
s(I18
I5
tp60
I60
s(I16
I29
tp61
I11
s(I6
I32
tp62
I8
s(I21
I8
tp63
I8
s(I17
I24
tp64
I8
s(I7
I37
tp65
I8
s(I22
I7
tp66
I8
s(I18
I31
tp67
I8
s(I23
I6
tp68
I8
s(I16
I39
tp69
I11
s(I11
I4
tp70
I8
s(I24
I28
tp71
I11
s(I12
I7
tp72
I8
s(I13
I6
tp73
I8
s(I0
I5
tp74
I11
s(I24
I2
tp75
I11
s(I1
I0
tp76
I11
s(I2
I7
tp77
I8
s(I6
I1
tp78
I8
s(I19
I27
tp79
I60
s(I2
I33
tp80
I8
s(I7
I4
tp81
I8
s(I22
I36
tp82
I8
s(I20
I28
tp83
I8
s(I16
I20
tp84
I11
s(I21
I17
tp85
I8
s(I19
I1
tp86
I60
s(I17
I17
tp87
I8
s(I7
I34
tp88
I60
s(I22
I30
tp89
I8
s(I11
I39
tp90
I11
s(I18
I22
tp91
I8
s(I23
I31
tp92
I8
s(I12
I32
tp93
I8
s(I8
I0
tp94
I11
s(I13
I37
tp95
I8
s(I11
I19
tp96
I8
s(I24
I9
tp97
I11
s(I14
I38
tp98
I8
s(I3
I31
tp99
I11
s(I15
I39
tp100
I11
s(I19
I32
tp101
I60
s(I20
I27
tp102
I8
s(I3
I37
tp103
I8
s(I16
I11
tp104
I11
s(I21
I26
tp105
I60
s(I4
I38
tp106
I8
s(I19
I6
tp107
I60
s(I8
I33
tp108
I8
s(I22
I17
tp109
I8
s(I5
I39
tp110
I11
s(I20
I1
tp111
I8
s(I18
I17
tp112
I8
s(I16
I33
tp113
I8
s(I21
I4
tp114
I8
s(I8
I7
tp115
I8
s(I22
I11
tp116
I8
s(I9
I6
tp117
I8
s(I10
I5
tp118
I60
s(I11
I8
tp119
I11
s(I24
I16
tp120
I11
s(I14
I7
tp121
I8
s(I15
I6
tp122
I8
s(I16
I21
tp123
I11
s(I3
I4
tp124
I8
s(I4
I7
tp125
I8
s(I5
I6
tp126
I8
s(I20
I34
tp127
I8
s(I16
I2
tp128
I8
s(I21
I35
tp129
I8
s(I19
I15
tp130
I60
s(I17
I3
tp131
I8
s(I5
I32
tp132
I8
s(I20
I8
tp133
I8
s(I9
I37
tp134
I8
s(I16
I24
tp135
I11
s(I21
I13
tp136
I60
s(I10
I34
tp137
I60
s(I16
I23
tp138
I11
s(I17
I37
tp139
I8
s(I22
I2
tp140
I8
s(I18
I34
tp141
I60
s(I23
I11
tp142
I8
s(I11
I1
tp143
I8
s(I24
I23
tp144
I11
s(I0
I0
tp145
I11
s(I0
I38
tp146
I11
s(I24
I35
tp147
I11
s(I3
I19
tp148
I61
s(I1
I39
tp149
I11
s(I19
I20
tp150
I60
s(I2
I36
tp151
I8
s(I17
I4
tp152
I8
s(I22
I35
tp153
I8
s(I20
I23
tp154
I8
s(I18
I3
tp155
I8
s(I16
I31
tp156
I60
s(I6
I38
tp157
I8
s(I21
I22
tp158
I8
s(I17
I30
tp159
I8
s(I7
I39
tp160
I11
s(I22
I5
tp161
I8
s(I11
I32
tp162
I8
s(I18
I29
tp163
I8
s(I23
I0
tp164
I11
s(I11
I6
tp165
I8
s(I24
I30
tp166
I11
s(I12
I1
tp167
I8
s(I13
I4
tp168
I8
s(I0
I7
tp169
I11
s(I24
I4
tp170
I11
s(I12
I31
tp171
I11
s(I1
I6
tp172
I8
s(I8
I38
tp173
I8
s(I2
I5
tp174
I60
s(I23
I38
tp175
I8
s(I5
I8
tp176
I11
s(I6
I7
tp177
I8
s(I19
I29
tp178
I60
s(I7
I6
tp179
I8
s(I20
I30
tp180
I8
s(I16
I22
tp181
I11
s(I21
I31
tp182
I8
s(I19
I3
tp183
I60
s(I17
I23
tp184
I8
s(I22
I28
tp185
I8
s(I9
I39
tp186
I11
s(I18
I20
tp187
I8
s(I23
I25
tp188
I8
s(I12
I34
tp189
I60
s(I8
I2
tp190
I8
s(I13
I35
tp191
I8
s(I9
I3
tp192
I8
s(I11
I21
tp193
I8
s(I24
I11
tp194
I11
s(I14
I2
tp195
I8
s(I1
I31
tp196
I11
s(I14
I36
tp197
I8
s(I3
I1
tp198
I8
s(I15
I33
tp199
I8
s(I19
I34
tp200
I60
s(I9
I38
tp201
I8
s(I20
I37
tp202
I8
s(I3
I39
tp203
I11
s(I16
I13
tp204
I11
s(I21
I24
tp205
I3
s(I4
I32
tp206
I8
s(I19
I8
tp207
I60
s(I8
I35
tp208
I8
s(I22
I23
tp209
I8
s(I5
I37
tp210
I8
s(I20
I3
tp211
I8
s(I9
I34
tp212
I60
s(I16
I35
tp213
I8
s(I21
I2
tp214
I8
s(I17
I34
tp215
I60
s(I22
I9
tp216
I8
s(I9
I4
tp217
I8
s(I23
I12
tp218
I8
s(I10
I3
tp219
I8
s(I24
I18
tp220
I11
s(I14
I5
tp221
I60
s(I15
I0
tp222
I11
s(I3
I6
tp223
I8
s(I8
I36
tp224
I8
s(I4
I1
tp225
I8
s(I0
I33
tp226
I11
s(I23
I36
tp227
I8
s(I5
I4
tp228
I8
s(I16
I4
tp229
I8
s(I21
I33
tp230
I8
s(I19
I17
tp231
I60
s(I17
I1
tp232
I8
s(I20
I10
tp233
I8
s(I18
I6
tp234
I8
s(I16
I26
tp235
I11
s(I21
I11
tp236
I8
s(I10
I32
tp237
I8
s(I17
I27
tp238
I8
s(I22
I0
tp239
I11
s(I9
I33
tp240
I8
s(I18
I32
tp241
I8
s(I23
I5
tp242
I8
s(I16
I36
tp243
I8
s(I11
I3
tp244
I8
s(I24
I25
tp245
I11
s(I12
I4
tp246
I8
s(I0
I2
tp247
I11
s(I11
I16
tp248
I60
s(I1
I3
tp249
I8
s(I4
I8
tp250
I11
s(I2
I8
tp251
I11
s(I24
I37
tp252
I11
s(I1
I37
tp253
I8
s(I6
I2
tp254
I8
s(I19
I22
tp255
I60
s(I2
I34
tp256
I60
s(I22
I33
tp257
I8
s(I20
I17
tp258
I8
s(I18
I1
tp259
I8
s(I16
I17
tp260
I11
s(I6
I36
tp261
I8
s(I21
I20
tp262
I8
s(I17
I28
tp263
I8
s(I7
I33
tp264
I8
s(I22
I27
tp265
I8
s(I11
I34
tp266
I60
s(I18
I27
tp267
I8
s(I23
I2
tp268
I8
s(I12
I37
tp269
I8
s(I12
I3
tp270
I8
s(I10
I31
tp271
I11
s(I13
I2
tp272
I8
s(I24
I6
tp273
I11
s(I1
I4
tp274
I8
s(I2
I3
tp275
I8
s(I14
I35
tp276
I8
s(I6
I5
tp277
I60
s(I8
I34
tp278
I60
s(I19
I31
tp279
I60
s(I7
I0
tp280
I11
s(I20
I24
tp281
I3
s(I3
I32
tp282
I8
s(I16
I8
tp283
I60
s(I6
I31
tp284
I11
s(I21
I29
tp285
I8
s(I19
I5
tp286
I60
s(I17
I21
tp287
I8
s(I22
I18
tp288
I8
s(I20
I6
tp289
I8
s(I18
I18
tp290
I8
s(I23
I27
tp291
I8
s(I21
I7
tp292
I8
s(I8
I4
tp293
I8
s(I13
I33
tp294
I8
s(I9
I35
tp295
I8
s(I9
I1
tp296
I8
s(I10
I6
tp297
I8
s(I15
I31
tp298
I11
s(I16
I34
tp299
I60
s(I11
I23
tp300
I60
s(I24
I13
tp301
I11
s(I14
I0
tp302
I11
s(I12
I16
tp303
I60
s(I15
I5
tp304
I60
s(I3
I3
tp305
I8
s(I15
I35
tp306
I8
s(I4
I4
tp307
I8
s(I19
I36
tp308
I60
s(I20
I39
tp309
I11
s(I8
I8
tp310
I11
s(I16
I15
tp311
I11
s(I21
I38
tp312
I8
s(I4
I34
tp313
I60
s(I19
I10
tp314
I60
s(I8
I37
tp315
I8
s(I22
I21
tp316
I8
s(I5
I35
tp317
I8
s(I20
I13
tp318
I60
s(I9
I32
tp319
I8
s(I16
I37
tp320
I8
s(I21
I0
tp321
I11
s(I10
I39
tp322
I11
s(I17
I32
tp323
I8
s(I22
I15
tp324
I8
s(I18
I39
tp325
I11
s(I23
I14
tp326
I8
s(I10
I1
tp327
I8
s(I24
I20
tp328
I11
s(I15
I2
tp329
I8
s(I3
I8
tp330
I11
s(I1
I8
tp331
I11
s(I4
I3
tp332
I8
s(I0
I35
tp333
I11
s(I24
I32
tp334
I11
s(I5
I2
tp335
I8
s(I1
I34
tp336
I60
s(I16
I6
tp337
I8
s(I8
I32
tp338
I8
s(I19
I19
tp339
I60
s(I17
I7
tp340
I8
s(I20
I20
tp341
I8
s(I18
I4
tp342
I8
s(I16
I28
tp343
I11
s(I6
I35
tp344
I8
s(I21
I9
tp345
I8
s(I17
I25
tp346
I8
s(I22
I6
tp347
I8
s(I18
I30
tp348
I8
s(I23
I7
tp349
I8
s(I10
I8
tp350
I11
s(I11
I5
tp351
I60
s(I24
I27
tp352
I11
s(I12
I6
tp353
I8
s(I13
I7
tp354
I8
s(I0
I4
tp355
I11
s(I24
I1
tp356
I11
s(I1
I1
tp357
I8
s(I2
I6
tp358
I8
s(I24
I39
tp359
I11
s(I6
I0
tp360
I11
s(I19
I24
tp361
I60
s(I2
I32
tp362
I8
s(I7
I5
tp363
I60
s(I22
I39
tp364
I11
s(I20
I19
tp365
I8
s(I16
I19
tp366
I11
s(I21
I18
tp367
I8
s(I17
I18
tp368
I8
s(I7
I35
tp369
I8
s(I22
I25
tp370
I8
s(I11
I36
tp371
I8
s(I18
I25
tp372
I8
s(I23
I28
tp373
I8
s(I12
I39
tp374
I11
s(I8
I31
tp375
I11
s(I13
I38
tp376
I8
s(I13
I0
tp377
I11
s(I18
I8
tp378
I8
s(I24
I8
tp379
I11
s(I2
I1
tp380
I8
s(I14
I33
tp381
I8
s(I15
I36
tp382
I8
s(I4
I31
tp383
I11
s(I19
I33
tp384
I60
s(I7
I2
tp385
I8
s(I20
I26
tp386
I60
s(I3
I34
tp387
I60
s(I16
I10
tp388
I11
s(I21
I27
tp389
I8
s(I4
I37
tp390
I8
s(I19
I7
tp391
I60
s(I17
I11
tp392
I8
s(I22
I16
tp393
I8
s(I20
I0
tp394
I11
s(I18
I16
tp395
I8
s(I16
I32
tp396
I8
s(I21
I5
tp397
I8
s(I8
I6
tp398
I8
s(I22
I10
tp399
I8
s(I9
I7
tp400
I8
s(I10
I4
tp401
I8
s(I24
I15
tp402
I11
s(I14
I6
tp403
I8
s(I15
I7
tp404
I8
s(I0
I8
tp405
I11
s(I3
I5
tp406
I60
s(I4
I6
tp407
I8
s(I19
I38
tp408
I60
s(I5
I7
tp409
I8
s(I20
I33
tp410
I8
s(I16
I1
tp411
I8
s(I21
I36
tp412
I8
s(I19
I12
tp413
I60
s(I8
I39
tp414
I11
s(I5
I33
tp415
I8
s(I20
I15
tp416
I3
s(I18
I11
tp417
I8
s(I23
I18
tp418
I8
s(I21
I14
tp419
I8
s(I10
I37
tp420
I8
s(I17
I38
tp421
I8
s(I22
I13
tp422
I60
s(I9
I8
tp423
I11
s(I23
I8
tp424
I8
s(I24
I22
tp425
I11
s(I2
I19
tp426
I61
s(I23
I35
tp427
I8
s(I0
I37
tp428
I11
s(I24
I34
tp429
I11
s(I5
I0
tp430
I11
s(I1
I32
tp431
I8
s(I19
I21
tp432
I60
s(I2
I39
tp433
I11
s(I17
I5
tp434
I60
s(I22
I34
tp435
I8
s(I9
I36
tp436
I8
s(I18
I2
tp437
I8
s(I16
I30
tp438
I11
s(I6
I33
tp439
I8
s(I21
I23
tp440
I8
s(I17
I31
tp441
I8
s(I7
I36
tp442
I8
s(I22
I4
tp443
I8
s(I11
I33
tp444
I8
s(I18
I28
tp445
I8
s(I23
I1
tp446
I8
s(I11
I7
tp447
I8
s(I20
I4
tp448
I8
s(I24
I29
tp449
I11
s(I12
I0
tp450
I11
s(I23
I39
tp451
I11
s(I13
I5
tp452
I60
s(I0
I6
tp453
I11
s(I24
I3
tp454
I11
s(I1
I7
tp455
I8
s(I13
I31
tp456
I11
s(I2
I4
tp457
I8
s(I6
I6
tp458
I8
s(I19
I26
tp459
I60
s(I7
I7
tp460
I8
s(I22
I37
tp461
I8
s(I20
I29
tp462
I8
s(I23
I32
tp463
I8
s(I21
I16
tp464
I8
s(I19
I0
tp465
I11
s(I17
I16
tp466
I8
s(I22
I31
tp467
I8
s(I11
I38
tp468
I8
s(I18
I23
tp469
I8
s(I23
I30
tp470
I8
s(I12
I33
tp471
I8
s(I8
I1
tp472
I8
s(I13
I36
tp473
I8
s(I11
I18
tp474
I8
s(I24
I10
tp475
I11
s(I17
I12
tp476
I8
s(I2
I31
tp477
I11
s(I23
I33
tp478
I8
s(I14
I39
tp479
I11
s(I15
I38
tp480
I8
s(I19
I35
tp481
I60
s(I20
I36
tp482
I8
s(I3
I36
tp483
I8
s(I16
I12
tp484
I11
s(I21
I25
tp485
I8
s(I4
I39
tp486
I11
s(I19
I9
tp487
I60
s(I17
I9
tp488
I8
s(I22
I22
tp489
I8
s(I5
I38
tp490
I8
s(I20
I2
tp491
I8
s(I18
I14
tp492
I8
s(I23
I23
tp493
I8
s(I21
I3
tp494
I8
s(I17
I35
tp495
I8
s(I22
I8
tp496
I8
s(I9
I5
tp497
I60
s(I23
I13
tp498
I60
s(I10
I2
tp499
I8
s(I24
I17
tp500
I11
s(I14
I4
tp501
I8
s(I15
I1
tp502
I8
s(I3
I7
tp503
I8
s(I4
I0
tp504
I11
s(I0
I32
tp505
I11
s(I5
I5
tp506
I60
s(I20
I35
tp507
I8
s(I16
I3
tp508
I8
s(I21
I34
tp509
I8
s(I19
I14
tp510
I60
s(I17
I2
tp511
I8
s(I20
I9
tp512
I8
s(I18
I9
tp513
I8
s(I16
I25
tp514
I11
s(I21
I12
tp515
I8
s(I10
I35
tp516
I8
s(I18
I37
tp517
I8
s(I17
I36
tp518
I8
s(I22
I3
tp519
I8
s(I18
I35
tp520
I8
s(I23
I10
tp521
I8
s(I11
I0
tp522
I11
s(I24
I24
tp523
I11
s(I0
I1
tp524
I11
s(I17
I14
tp525
I8
s(I0
I39
tp526
I11
s(I24
I36
tp527
I11
s(I1
I38
tp528
I8
s(I19
I23
tp529
I60
s(I2
I37
tp530
I8
s(I7
I8
tp531
I11
s(I22
I32
tp532
I8
s(I20
I16
tp533
I8
s(I18
I0
tp534
I11
s(I16
I16
tp535
I11
s(I6
I39
tp536
I11
s(I21
I21
tp537
I8
s(I17
I29
tp538
I8
s(I7
I38
tp539
I8
s(I22
I26
tp540
I60
s(I18
I13
tp541
I8
s(I18
I26
tp542
I8
s(I23
I3
tp543
I8
s(I12
I36
tp544
I8
s(I23
I16
tp545
I8
s(I24
I31
tp546
I11
s(I12
I2
tp547
I8
s(I13
I3
tp548
I8
s(I11
I31
tp549
I11
s(I24
I5
tp550
I11
s(I1
I5
tp551
I60
s(I2
I2
tp552
I8
s(I14
I34
tp553
I60
s(I6
I4
tp554
I8
s(I19
I28
tp555
I60
s(I7
I1
tp556
I8
s(I20
I31
tp557
I8
s(I3
I33
tp558
I8
s(I23
I34
tp559
I8
s(I21
I30
tp560
I8
s(I19
I2
tp561
I60
s(I17
I22
tp562
I8
s(I7
I31
tp563
I11
s(I22
I29
tp564
I8
s(I20
I5
tp565
I8
s(I18
I21
tp566
I8
s(I23
I24
tp567
I8
s(I12
I35
tp568
I8
s(I8
I3
tp569
I8
s(I13
I34
tp570
I60
s(I23
I19
tp571
I8
s(I9
I2
tp572
I8
s(I11
I20
tp573
I8
s(I0
I31
tp574
I11
s(I24
I12
tp575
I11
s(I14
I3
tp576
I8
s(I12
I23
tp577
I60
s(I14
I37
tp578
I8
s(I3
I0
tp579
I11
s(I15
I32
tp580
I8
s(I17
I8
tp581
I8
s(I19
I37
tp582
I60
s(I23
I37
tp583
I8
s(I20
I38
tp584
I8
s(I3
I38
tp585
I8
s(I16
I14
tp586
I11
s(I21
I39
tp587
I11
s(I4
I33
tp588
I8
s(I19
I11
tp589
I60
s(I17
I15
tp590
I8
s(I22
I20
tp591
I8
s(I5
I36
tp592
I8
s(I20
I12
tp593
I8
s(I18
I12
tp594
I8
s(I23
I17
tp595
I8
s(I21
I1
tp596
I8
s(I10
I38
tp597
I8
s(I17
I33
tp598
I8
s(I22
I14
tp599
I8
s(I18
I15
tp600
I8
s(I18
I38
tp601
I8
s(I23
I15
tp602
I8
s(I10
I0
tp603
I11
s(I23
I22
tp604
I8
s(I24
I19
tp605
I11
s(I15
I3
tp606
I8
s(I2
I20
tp607
I61
s(I11
I35
tp608
I8
s(I4
I2
tp609
I8
s(I0
I34
tp610
I11
s(I5
I3
tp611
I8
s(I1
I35
tp612
I8
s(I16
I5
tp613
I60
s(I6
I8
tp614
I11
s(I21
I32
tp615
I8
s(I19
I16
tp616
I60
s(I17
I0
tp617
I11
s(I20
I11
tp618
I8
s(I18
I7
tp619
I8
s(I16
I27
tp620
I11
s(I6
I34
tp621
I60
s(I21
I10
tp622
I8
s(I10
I33
tp623
I8
s(I17
I26
tp624
I8
s(I22
I1
tp625
I8
s(I18
I33
tp626
I8
s(I23
I4
tp627
I8
s(I11
I2
tp628
I8
s(I24
I26
tp629
I11
s(I12
I5
tp630
I60
s(I15
I8
tp631
I11
s(I13
I8
tp632
I11
s(I0
I3
tp633
I11
s(I24
I0
tp634
I11
s(I20
I22
tp635
I8
s(I1
I2
tp636
I8
s(I23
I21
tp637
I8
s(I24
I38
tp638
I11
s(I3
I20
tp639
I61
s(I1
I36
tp640
I8
s(I6
I3
tp641
I8
s(I17
I10
tp642
I8
s(I19
I25
tp643
I60
s(I2
I35
tp644
I8
s(I22
I38
tp645
I8
s(I20
I18
tp646
I8
s(I16
I18
tp647
I11
s(I6
I37
tp648
I8
s(I21
I19
tp649
I8
s(I17
I19
tp650
I8
s(I7
I32
tp651
I8
s(I22
I24
tp652
I8
s(I11
I37
tp653
I8
s(I18
I24
tp654
I8
s(I23
I29
tp655
I8
s(I12
I38
tp656
I8
s(I13
I39
tp657
I11
s(I9
I31
tp658
I11
s(I13
I1
tp659
I8
s(I11
I17
tp660
I8
s(I24
I7
tp661
I11
s(I23
I20
tp662
I8
s(I2
I0
tp663
I11
s(I14
I32
tp664
I8
s(I15
I37
tp665
I8
s(I19
I30
tp666
I60
sa(dp667
(I1
I34
tp668
I60
s(I7
I3
tp669
I60
s(I5
I31
tp670
I60
s(I24
I30
tp671
I60
s(I16
I9
tp672
I60
s(I15
I0
tp673
I60
s(I13
I4
tp674
I60
s(I19
I4
tp675
I60
s(I16
I28
tp676
I60
s(I12
I31
tp677
I60
s(I23
I26
tp678
I60
s(I8
I5
tp679
I60
s(I24
I11
tp680
I60
s(I5
I8
tp681
I60
s(I4
I0
tp682
I60
s(I10
I8
tp683
I60
s(I9
I0
tp684
I60
s(I14
I31
tp685
I60
s(I5
I5
tp686
I60
s(I11
I5
tp687
I60
s(I24
I27
tp688
I60
s(I19
I14
tp689
I60
s(I8
I8
tp690
I60
s(I16
I22
tp691
I60
s(I24
I24
tp692
I60
s(I12
I17
tp693
I8
s(I19
I3
tp694
I60
s(I9
I31
tp695
I60
s(I0
I4
tp696
I60
s(I16
I25
tp697
I60
s(I9
I39
tp698
I60
s(I12
I34
tp699
I60
s(I16
I15
tp700
I60
s(I15
I34
tp701
I60
s(I13
I35
tp702
I60
s(I4
I5
tp703
I60
s(I19
I39
tp704
I60
s(I6
I0
tp705
I60
s(I11
I0
tp706
I60
s(I16
I0
tp707
I60
s(I22
I39
tp708
I60
s(I16
I12
tp709
I60
s(I19
I13
tp710
I60
s(I7
I0
tp711
I60
s(I16
I19
tp712
I60
s(I24
I4
tp713
I60
s(I5
I34
tp714
I60
s(I12
I22
tp715
I8
s(I1
I31
tp716
I60
s(I0
I1
tp717
I60
s(I7
I35
tp718
I60
s(I13
I23
tp719
I60
s(I24
I17
tp720
I60
s(I17
I39
tp721
I60
s(I12
I39
tp722
I60
s(I0
I39
tp723
I11
s(I24
I36
tp724
I60
s(I13
I38
tp725
I60
s(I11
I8
tp726
I60
s(I19
I34
tp727
I60
s(I3
I39
tp728
I60
s(I24
I21
tp729
I60
s(I14
I8
tp730
I60
s(I13
I0
tp731
I60
s(I12
I8
tp732
I60
s(I19
I8
tp733
I60
s(I18
I0
tp734
I60
s(I16
I16
tp735
I60
s(I6
I39
tp736
I60
s(I7
I38
tp737
I60
s(I22
I26
tp738
I60
s(I0
I0
tp739
I11
s(I8
I31
tp740
I60
s(I0
I36
tp741
I60
s(I24
I33
tp742
I60
s(I24
I10
tp743
I60
s(I4
I31
tp744
I60
s(I19
I33
tp745
I60
s(I7
I2
tp746
I60
s(I23
I13
tp747
I60
s(I20
I26
tp748
I60
s(I3
I34
tp749
I60
s(I16
I10
tp750
I60
s(I14
I5
tp751
I60
s(I13
I3
tp752
I60
s(I11
I31
tp753
I60
s(I18
I5
tp754
I60
s(I7
I1
tp755
I60
s(I16
I29
tp756
I60
s(I16
I27
tp757
I60
s(I13
I16
tp758
I60
s(I20
I0
tp759
I60
s(I1
I5
tp760
I60
s(I7
I37
tp761
I60
s(I3
I19
tp762
I61
s(I14
I34
tp763
I60
s(I16
I17
tp764
I60
s(I19
I28
tp765
I60
s(I24
I28
tp766
I60
s(I24
I15
tp767
I60
s(I16
I31
tp768
I60
s(I12
I18
tp769
I8
s(I19
I2
tp770
I60
s(I0
I5
tp771
I60
s(I16
I26
tp772
I60
s(I19
I23
tp773
I60
s(I1
I0
tp774
I60
s(I0
I8
tp775
I11
s(I22
I0
tp776
I60
s(I3
I5
tp777
I60
s(I13
I34
tp778
I60
s(I19
I38
tp779
I60
s(I16
I13
tp780
I60
s(I19
I29
tp781
I60
s(I19
I27
tp782
I60
s(I7
I4
tp783
I60
s(I19
I12
tp784
I60
s(I8
I39
tp785
I60
s(I16
I20
tp786
I60
s(I12
I23
tp787
I60
s(I19
I1
tp788
I60
s(I0
I2
tp789
I60
s(I7
I34
tp790
I60
s(I24
I2
tp791
I60
s(I11
I39
tp792
I60
s(I22
I13
tp793
I60
s(I4
I8
tp794
I60
s(I3
I0
tp795
I60
s(I2
I8
tp796
I60
s(I9
I8
tp797
I60
s(I8
I0
tp798
I60
s(I24
I37
tp799
I60
s(I13
I37
tp800
I60
s(I19
I37
tp801
I60
s(I24
I8
tp802
I60
s(I16
I14
tp803
I60
s(I21
I39
tp804
I60
s(I24
I22
tp805
I60
s(I19
I11
tp806
I60
s(I24
I9
tp807
I60
s(I7
I8
tp808
I60
s(I12
I20
tp809
I8
s(I2
I19
tp810
I61
s(I24
I14
tp811
I60
s(I11
I34
tp812
I60
s(I3
I20
tp813
I61
s(I3
I31
tp814
I60
s(I0
I37
tp815
I60
s(I15
I39
tp816
I60
s(I5
I0
tp817
I60
s(I19
I32
tp818
I60
s(I10
I0
tp819
I60
s(I24
I20
tp820
I60
s(I24
I34
tp821
I60
s(I10
I31
tp822
I60
s(I17
I5
tp823
I60
s(I16
I11
tp824
I60
s(I13
I2
tp825
I60
s(I19
I6
tp826
I60
s(I13
I1
tp827
I60
s(I24
I6
tp828
I60
s(I5
I39
tp829
I60
s(I2
I20
tp830
I61
s(I15
I31
tp831
I60
s(I7
I36
tp832
I60
s(I24
I1
tp833
I60
s(I16
I5
tp834
I60
s(I15
I8
tp835
I60
s(I0
I34
tp836
I60
s(I6
I5
tp837
I60
s(I19
I31
tp838
I60
s(I10
I5
tp839
I60
s(I24
I29
tp840
I60
s(I6
I8
tp841
I60
s(I12
I0
tp842
I60
s(I19
I16
tp843
I60
s(I23
I39
tp844
I60
s(I17
I0
tp845
I60
s(I16
I8
tp846
I60
s(I6
I31
tp847
I60
s(I13
I5
tp848
I60
s(I12
I19
tp849
I8
s(I19
I5
tp850
I60
s(I24
I3
tp851
I60
s(I6
I34
tp852
I60
s(I16
I21
tp853
I60
s(I13
I31
tp854
I60
s(I24
I19
tp855
I60
s(I2
I39
tp856
I60
s(I2
I0
tp857
I60
s(I13
I8
tp858
I60
s(I19
I26
tp859
I60
s(I24
I26
tp860
I60
s(I7
I39
tp861
I60
s(I12
I5
tp862
I60
s(I19
I15
tp863
I60
s(I24
I16
tp864
I60
s(I24
I13
tp865
I60
s(I14
I0
tp866
I60
s(I21
I16
tp867
I3
s(I12
I16
tp868
I60
s(I19
I0
tp869
I60
s(I21
I26
tp870
I60
s(I0
I3
tp871
I60
s(I16
I24
tp872
I60
s(I21
I13
tp873
I60
s(I10
I34
tp874
I60
s(I16
I23
tp875
I60
s(I24
I25
tp876
I60
s(I24
I0
tp877
I11
s(I24
I39
tp878
I11
s(I18
I34
tp879
I60
s(I24
I38
tp880
I60
s(I13
I36
tp881
I60
s(I19
I36
tp882
I60
s(I7
I31
tp883
I60
s(I10
I39
tp884
I60
s(I20
I39
tp885
I60
s(I19
I25
tp886
I60
s(I24
I31
tp887
I60
s(I24
I23
tp888
I60
s(I16
I30
tp889
I60
s(I4
I34
tp890
I60
s(I19
I10
tp891
I60
s(I16
I18
tp892
I60
s(I12
I21
tp893
I8
s(I21
I23
tp894
I3
s(I0
I31
tp895
I11
s(I21
I0
tp896
I60
s(I2
I31
tp897
I60
s(I24
I12
tp898
I60
s(I14
I39
tp899
I60
s(I18
I39
tp900
I60
s(I0
I38
tp901
I60
s(I24
I35
tp902
I60
s(I13
I39
tp903
I60
s(I19
I35
tp904
I60
s(I1
I39
tp905
I60
s(I20
I16
tp906
I3
s(I24
I18
tp907
I60
s(I19
I24
tp908
I60
s(I20
I23
tp909
I3
s(I19
I9
tp910
I60
s(I20
I13
tp911
I60
s(I8
I34
tp912
I60
s(I24
I7
tp913
I60
s(I16
I34
tp914
I60
s(I3
I8
tp915
I60
s(I4
I39
tp916
I60
s(I1
I8
tp917
I60
s(I7
I5
tp918
I60
s(I23
I0
tp919
I60
s(I16
I39
tp920
I60
s(I19
I7
tp921
I60
s(I0
I35
tp922
I60
s(I24
I32
tp923
I60
s(I24
I5
tp924
I60
s(I19
I30
tp925
I60
sa(dp926
(I1
I34
tp927
I60
s(I7
I3
tp928
I60
s(I24
I30
tp929
I60
s(I16
I9
tp930
I60
s(I3
I20
tp931
I58
s(I13
I4
tp932
I60
s(I19
I4
tp933
I60
s(I24
I4
tp934
I60
s(I13
I17
tp935
I8
s(I23
I26
tp936
I60
s(I8
I5
tp937
I60
s(I24
I11
tp938
I60
s(I10
I8
tp939
I60
s(I14
I31
tp940
I60
s(I5
I5
tp941
I60
s(I19
I29
tp942
I60
s(I24
I27
tp943
I60
s(I19
I14
tp944
I60
s(I16
I22
tp945
I60
s(I19
I3
tp946
I60
s(I24
I1
tp947
I60
s(I13
I20
tp948
I8
s(I12
I34
tp949
I60
s(I16
I15
tp950
I60
s(I15
I34
tp951
I60
s(I13
I35
tp952
I60
s(I4
I5
tp953
I60
s(I6
I0
tp954
I60
s(I19
I24
tp955
I60
s(I7
I5
tp956
I60
s(I22
I39
tp957
I60
s(I19
I13
tp958
I60
s(I16
I5
tp959
I60
s(I16
I19
tp960
I60
s(I5
I34
tp961
I60
s(I14
I16
tp962
I60
s(I7
I35
tp963
I60
s(I13
I23
tp964
I60
s(I24
I17
tp965
I60
s(I0
I39
tp966
I11
s(I24
I36
tp967
I60
s(I13
I38
tp968
I60
s(I19
I34
tp969
I60
s(I19
I23
tp970
I60
s(I24
I21
tp971
I60
s(I14
I8
tp972
I60
s(I19
I8
tp973
I60
s(I18
I0
tp974
I60
s(I2
I31
tp975
I60
s(I16
I16
tp976
I60
s(I6
I39
tp977
I60
s(I7
I38
tp978
I60
s(I22
I26
tp979
I60
s(I24
I33
tp980
I60
s(I19
I33
tp981
I60
s(I7
I2
tp982
I60
s(I23
I13
tp983
I60
s(I20
I26
tp984
I60
s(I3
I34
tp985
I60
s(I24
I18
tp986
I60
s(I14
I5
tp987
I60
s(I13
I3
tp988
I60
s(I19
I7
tp989
I60
s(I18
I5
tp990
I60
s(I7
I1
tp991
I60
s(I24
I5
tp992
I60
s(I13
I16
tp993
I60
s(I1
I5
tp994
I60
s(I7
I37
tp995
I60
s(I3
I19
tp996
I58
s(I14
I34
tp997
I60
s(I16
I17
tp998
I60
s(I19
I28
tp999
I60
s(I24
I28
tp1000
I60
s(I19
I17
tp1001
I60
s(I24
I15
tp1002
I60
s(I19
I2
tp1003
I60
s(I16
I23
tp1004
I60
s(I13
I19
tp1005
I8
s(I0
I8
tp1006
I11
s(I22
I0
tp1007
I60
s(I3
I5
tp1008
I60
s(I13
I34
tp1009
I60
s(I19
I38
tp1010
I60
s(I16
I18
tp1011
I60
s(I11
I5
tp1012
I60
s(I19
I27
tp1013
I60
s(I7
I4
tp1014
I60
s(I19
I12
tp1015
I60
s(I0
I31
tp1016
I11
s(I16
I20
tp1017
I60
s(I21
I17
tp1018
I3
s(I19
I1
tp1019
I60
s(I7
I34
tp1020
I60
s(I24
I2
tp1021
I60
s(I13
I22
tp1022
I8
s(I22
I13
tp1023
I60
s(I2
I8
tp1024
I60
s(I24
I37
tp1025
I60
s(I13
I37
tp1026
I60
s(I19
I37
tp1027
I60
s(I24
I8
tp1028
I60
s(I19
I22
tp1029
I60
s(I24
I22
tp1030
I60
s(I20
I17
tp1031
I3
s(I19
I11
tp1032
I60
s(I24
I9
tp1033
I60
s(I2
I19
tp1034
I58
s(I24
I14
tp1035
I60
s(I11
I34
tp1036
I60
s(I24
I34
tp1037
I60
s(I19
I32
tp1038
I60
s(I10
I0
tp1039
I60
s(I14
I23
tp1040
I60
s(I10
I31
tp1041
I60
s(I17
I5
tp1042
I60
s(I24
I19
tp1043
I60
s(I13
I2
tp1044
I60
s(I20
I22
tp1045
I3
s(I19
I6
tp1046
I60
s(I16
I30
tp1047
I60
s(I2
I20
tp1048
I58
s(I7
I36
tp1049
I60
s(I6
I5
tp1050
I60
s(I19
I31
tp1051
I60
s(I10
I5
tp1052
I60
s(I24
I29
tp1053
I60
s(I6
I8
tp1054
I60
s(I19
I16
tp1055
I60
s(I16
I8
tp1056
I60
s(I6
I31
tp1057
I60
s(I13
I5
tp1058
I60
s(I19
I5
tp1059
I60
s(I24
I3
tp1060
I60
s(I6
I34
tp1061
I60
s(I13
I18
tp1062
I8
s(I16
I21
tp1063
I60
s(I2
I39
tp1064
I60
s(I19
I26
tp1065
I60
s(I24
I26
tp1066
I60
s(I12
I5
tp1067
I60
s(I19
I15
tp1068
I60
s(I24
I13
tp1069
I60
s(I14
I0
tp1070
I60
s(I21
I26
tp1071
I60
s(I16
I24
tp1072
I60
s(I13
I21
tp1073
I8
s(I10
I34
tp1074
I60
s(I24
I25
tp1075
I60
s(I24
I0
tp1076
I11
s(I24
I39
tp1077
I11
s(I18
I34
tp1078
I60
s(I24
I38
tp1079
I60
s(I13
I36
tp1080
I60
s(I19
I36
tp1081
I60
s(I21
I13
tp1082
I60
s(I19
I25
tp1083
I60
s(I24
I31
tp1084
I60
s(I24
I23
tp1085
I60
s(I24
I6
tp1086
I60
s(I4
I34
tp1087
I60
s(I19
I10
tp1088
I60
s(I24
I10
tp1089
I60
s(I20
I13
tp1090
I60
s(I0
I0
tp1091
I11
s(I10
I39
tp1092
I60
s(I24
I12
tp1093
I60
s(I14
I39
tp1094
I60
s(I18
I39
tp1095
I60
s(I24
I35
tp1096
I60
s(I19
I35
tp1097
I60
s(I24
I16
tp1098
I60
s(I24
I20
tp1099
I60
s(I13
I1
tp1100
I60
s(I19
I9
tp1101
I60
s(I8
I34
tp1102
I60
s(I16
I31
tp1103
I60
s(I21
I22
tp1104
I3
s(I16
I34
tp1105
I60
s(I2
I0
tp1106
I60
s(I24
I24
tp1107
I60
s(I23
I0
tp1108
I11
s(I24
I32
tp1109
I60
s(I24
I7
tp1110
I60
s(I19
I30
tp1111
I60
sa(dp1112
(I1
I34
tp1113
I60
s(I7
I3
tp1114
I60
s(I14
I17
tp1115
I8
s(I5
I31
tp1116
I60
s(I24
I30
tp1117
I60
s(I16
I9
tp1118
I60
s(I15
I0
tp1119
I60
s(I13
I4
tp1120
I60
s(I19
I4
tp1121
I60
s(I0
I7
tp1122
I60
s(I16
I28
tp1123
I60
s(I12
I31
tp1124
I60
s(I16
I10
tp1125
I60
s(I23
I26
tp1126
I60
s(I2
I5
tp1127
I60
s(I8
I5
tp1128
I60
s(I24
I11
tp1129
I60
s(I5
I8
tp1130
I60
s(I4
I0
tp1131
I60
s(I10
I8
tp1132
I60
s(I9
I0
tp1133
I60
s(I0
I32
tp1134
I60
s(I14
I31
tp1135
I60
s(I5
I5
tp1136
I60
s(I11
I5
tp1137
I60
s(I21
I18
tp1138
I3
s(I24
I27
tp1139
I60
s(I14
I18
tp1140
I8
s(I19
I14
tp1141
I60
s(I8
I8
tp1142
I60
s(I16
I22
tp1143
I60
s(I19
I3
tp1144
I60
s(I9
I31
tp1145
I60
s(I0
I4
tp1146
I60
s(I16
I25
tp1147
I60
s(I9
I39
tp1148
I60
s(I12
I34
tp1149
I60
s(I16
I15
tp1150
I60
s(I15
I34
tp1151
I60
s(I13
I35
tp1152
I60
s(I4
I5
tp1153
I60
s(I19
I39
tp1154
I60
s(I6
I0
tp1155
I60
s(I11
I0
tp1156
I60
s(I24
I24
tp1157
I60
s(I22
I39
tp1158
I60
s(I19
I13
tp1159
I60
s(I7
I0
tp1160
I60
s(I16
I19
tp1161
I60
s(I24
I4
tp1162
I60
s(I5
I34
tp1163
I60
s(I1
I31
tp1164
I60
s(I0
I1
tp1165
I60
s(I7
I35
tp1166
I60
s(I24
I17
tp1167
I60
s(I17
I39
tp1168
I60
s(I12
I39
tp1169
I60
s(I0
I39
tp1170
I11
s(I24
I36
tp1171
I60
s(I13
I38
tp1172
I60
s(I11
I8
tp1173
I60
s(I19
I34
tp1174
I60
s(I14
I21
tp1175
I8
s(I3
I39
tp1176
I60
s(I24
I21
tp1177
I60
s(I14
I8
tp1178
I60
s(I13
I0
tp1179
I60
s(I12
I8
tp1180
I60
s(I19
I8
tp1181
I60
s(I18
I0
tp1182
I60
s(I16
I16
tp1183
I60
s(I6
I39
tp1184
I60
s(I21
I21
tp1185
I3
s(I9
I34
tp1186
I60
s(I7
I38
tp1187
I60
s(I22
I26
tp1188
I60
s(I17
I34
tp1189
I60
s(I8
I31
tp1190
I60
s(I0
I36
tp1191
I60
s(I24
I33
tp1192
I60
s(I24
I10
tp1193
I60
s(I4
I31
tp1194
I60
s(I19
I33
tp1195
I60
s(I7
I2
tp1196
I60
s(I14
I22
tp1197
I8
s(I20
I26
tp1198
I60
s(I3
I34
tp1199
I60
s(I15
I23
tp1200
I60
s(I14
I5
tp1201
I60
s(I13
I3
tp1202
I60
s(I20
I21
tp1203
I3
s(I11
I31
tp1204
I60
s(I18
I5
tp1205
I60
s(I7
I1
tp1206
I60
s(I16
I29
tp1207
I60
s(I16
I27
tp1208
I60
s(I20
I0
tp1209
I60
s(I1
I5
tp1210
I60
s(I7
I37
tp1211
I60
s(I14
I34
tp1212
I60
s(I0
I33
tp1213
I60
s(I16
I17
tp1214
I60
s(I19
I28
tp1215
I60
s(I24
I28
tp1216
I60
s(I14
I19
tp1217
I8
s(I19
I17
tp1218
I60
s(I24
I15
tp1219
I60
s(I16
I31
tp1220
I60
s(I19
I2
tp1221
I60
s(I0
I5
tp1222
I60
s(I16
I26
tp1223
I60
s(I19
I23
tp1224
I60
s(I1
I0
tp1225
I60
s(I0
I8
tp1226
I11
s(I22
I0
tp1227
I60
s(I3
I5
tp1228
I60
s(I13
I34
tp1229
I60
s(I19
I38
tp1230
I60
s(I16
I13
tp1231
I60
s(I19
I29
tp1232
I60
s(I19
I27
tp1233
I60
s(I7
I4
tp1234
I60
s(I24
I18
tp1235
I60
s(I19
I12
tp1236
I60
s(I8
I39
tp1237
I60
s(I16
I20
tp1238
I60
s(I19
I1
tp1239
I60
s(I0
I2
tp1240
I60
s(I7
I34
tp1241
I60
s(I24
I2
tp1242
I60
s(I11
I39
tp1243
I60
s(I22
I13
tp1244
I60
s(I4
I8
tp1245
I60
s(I3
I0
tp1246
I60
s(I2
I8
tp1247
I60
s(I9
I8
tp1248
I60
s(I8
I0
tp1249
I60
s(I24
I37
tp1250
I60
s(I13
I37
tp1251
I60
s(I19
I37
tp1252
I60
s(I24
I8
tp1253
I60
s(I19
I22
tp1254
I60
s(I2
I34
tp1255
I60
s(I16
I14
tp1256
I60
s(I21
I39
tp1257
I60
s(I24
I22
tp1258
I60
s(I19
I11
tp1259
I60
s(I24
I9
tp1260
I60
s(I7
I8
tp1261
I60
s(I24
I14
tp1262
I60
s(I11
I34
tp1263
I60
s(I24
I0
tp1264
I11
s(I3
I31
tp1265
I60
s(I0
I37
tp1266
I60
s(I15
I39
tp1267
I60
s(I5
I0
tp1268
I60
s(I19
I32
tp1269
I60
s(I10
I0
tp1270
I60
s(I16
I12
tp1271
I60
s(I14
I23
tp1272
I60
s(I24
I34
tp1273
I60
s(I2
I39
tp1274
I60
s(I17
I5
tp1275
I60
s(I16
I11
tp1276
I60
s(I13
I2
tp1277
I60
s(I19
I6
tp1278
I60
s(I13
I1
tp1279
I60
s(I16
I30
tp1280
I60
s(I5
I39
tp1281
I60
s(I15
I31
tp1282
I60
s(I7
I36
tp1283
I60
s(I24
I1
tp1284
I60
s(I16
I5
tp1285
I60
s(I15
I8
tp1286
I60
s(I0
I34
tp1287
I60
s(I6
I5
tp1288
I60
s(I19
I31
tp1289
I60
s(I10
I5
tp1290
I60
s(I24
I29
tp1291
I60
s(I6
I8
tp1292
I60
s(I12
I0
tp1293
I60
s(I19
I16
tp1294
I60
s(I23
I39
tp1295
I60
s(I17
I0
tp1296
I60
s(I16
I8
tp1297
I60
s(I6
I31
tp1298
I60
s(I13
I5
tp1299
I60
s(I19
I5
tp1300
I60
s(I0
I6
tp1301
I60
s(I24
I3
tp1302
I60
s(I6
I34
tp1303
I60
s(I23
I13
tp1304
I60
s(I16
I21
tp1305
I60
s(I13
I31
tp1306
I60
s(I24
I19
tp1307
I60
s(I10
I31
tp1308
I60
s(I14
I16
tp1309
I60
s(I19
I26
tp1310
I60
s(I24
I26
tp1311
I60
s(I7
I39
tp1312
I60
s(I12
I5
tp1313
I60
s(I19
I15
tp1314
I60
s(I24
I13
tp1315
I60
s(I14
I0
tp1316
I60
s(I13
I8
tp1317
I60
s(I19
I0
tp1318
I60
s(I21
I26
tp1319
I60
s(I0
I3
tp1320
I60
s(I15
I5
tp1321
I60
s(I21
I13
tp1322
I60
s(I10
I34
tp1323
I60
s(I16
I23
tp1324
I60
s(I24
I25
tp1325
I60
s(I7
I5
tp1326
I60
s(I16
I24
tp1327
I60
s(I24
I39
tp1328
I11
s(I18
I34
tp1329
I60
s(I24
I38
tp1330
I60
s(I13
I36
tp1331
I60
s(I19
I36
tp1332
I60
s(I7
I31
tp1333
I60
s(I10
I39
tp1334
I60
s(I15
I16
tp1335
I60
s(I20
I39
tp1336
I60
s(I19
I25
tp1337
I60
s(I24
I31
tp1338
I60
s(I24
I23
tp1339
I60
s(I24
I6
tp1340
I60
s(I4
I34
tp1341
I60
s(I19
I10
tp1342
I60
s(I16
I18
tp1343
I60
s(I20
I13
tp1344
I60
s(I0
I0
tp1345
I11
s(I0
I31
tp1346
I11
s(I21
I0
tp1347
I60
s(I2
I31
tp1348
I60
s(I24
I12
tp1349
I60
s(I14
I39
tp1350
I60
s(I20
I18
tp1351
I3
s(I18
I39
tp1352
I60
s(I0
I38
tp1353
I60
s(I24
I35
tp1354
I60
s(I13
I39
tp1355
I60
s(I19
I35
tp1356
I60
s(I1
I39
tp1357
I60
s(I14
I20
tp1358
I8
s(I24
I16
tp1359
I60
s(I24
I20
tp1360
I60
s(I19
I24
tp1361
I60
s(I4
I39
tp1362
I60
s(I19
I9
tp1363
I60
s(I8
I34
tp1364
I60
s(I24
I7
tp1365
I60
s(I16
I34
tp1366
I60
s(I3
I8
tp1367
I60
s(I2
I0
tp1368
I60
s(I1
I8
tp1369
I60
s(I16
I0
tp1370
I60
s(I23
I0
tp1371
I60
s(I16
I39
tp1372
I60
s(I19
I7
tp1373
I60
s(I9
I5
tp1374
I60
s(I0
I35
tp1375
I60
s(I24
I32
tp1376
I60
s(I24
I5
tp1377
I60
s(I19
I30
tp1378
I60
sa(dp1379
(I7
I3
tp1380
I8
s(I5
I31
tp1381
I11
s(I20
I25
tp1382
I8
s(I3
I35
tp1383
I8
s(I16
I9
tp1384
I11
s(I21
I28
tp1385
I8
s(I4
I36
tp1386
I8
s(I19
I4
tp1387
I60
s(I17
I20
tp1388
I8
s(I22
I19
tp1389
I8
s(I20
I7
tp1390
I8
s(I18
I19
tp1391
I8
s(I23
I26
tp1392
I60
s(I21
I6
tp1393
I8
s(I8
I5
tp1394
I60
s(I13
I32
tp1395
I8
s(I9
I0
tp1396
I11
s(I14
I31
tp1397
I11
s(I10
I7
tp1398
I8
s(I24
I14
tp1399
I11
s(I14
I1
tp1400
I8
s(I18
I11
tp1401
I8
s(I15
I4
tp1402
I8
s(I3
I2
tp1403
I8
s(I15
I34
tp1404
I60
s(I4
I5
tp1405
I60
s(I19
I39
tp1406
I11
s(I20
I32
tp1407
I8
s(I16
I0
tp1408
I11
s(I21
I37
tp1409
I8
s(I4
I35
tp1410
I8
s(I19
I13
tp1411
I60
s(I17
I13
tp1412
I8
s(I5
I34
tp1413
I60
s(I20
I14
tp1414
I8
s(I18
I10
tp1415
I8
s(I23
I19
tp1416
I8
s(I21
I15
tp1417
I3
s(I10
I36
tp1418
I8
s(I17
I39
tp1419
I11
s(I22
I12
tp1420
I8
s(I18
I36
tp1421
I8
s(I23
I9
tp1422
I8
s(I24
I21
tp1423
I11
s(I14
I8
tp1424
I11
s(I12
I8
tp1425
I11
s(I0
I36
tp1426
I11
s(I24
I33
tp1427
I11
s(I5
I1
tp1428
I8
s(I1
I33
tp1429
I8
s(I16
I7
tp1430
I8
s(I19
I18
tp1431
I60
s(I2
I38
tp1432
I8
s(I17
I6
tp1433
I8
s(I20
I21
tp1434
I8
s(I18
I5
tp1435
I60
s(I16
I29
tp1436
I11
s(I6
I32
tp1437
I8
s(I21
I8
tp1438
I8
s(I17
I24
tp1439
I8
s(I7
I37
tp1440
I8
s(I22
I7
tp1441
I8
s(I18
I31
tp1442
I8
s(I23
I6
tp1443
I8
s(I11
I4
tp1444
I8
s(I24
I28
tp1445
I11
s(I12
I7
tp1446
I8
s(I13
I6
tp1447
I8
s(I0
I5
tp1448
I11
s(I24
I2
tp1449
I11
s(I1
I0
tp1450
I11
s(I2
I7
tp1451
I8
s(I6
I1
tp1452
I8
s(I19
I27
tp1453
I60
s(I2
I33
tp1454
I8
s(I7
I4
tp1455
I8
s(I22
I36
tp1456
I8
s(I20
I28
tp1457
I8
s(I16
I20
tp1458
I11
s(I21
I17
tp1459
I8
s(I19
I1
tp1460
I60
s(I17
I17
tp1461
I8
s(I7
I34
tp1462
I60
s(I22
I30
tp1463
I8
s(I9
I37
tp1464
I8
s(I11
I39
tp1465
I11
s(I18
I22
tp1466
I8
s(I23
I31
tp1467
I8
s(I12
I32
tp1468
I8
s(I8
I0
tp1469
I11
s(I13
I37
tp1470
I8
s(I24
I9
tp1471
I11
s(I14
I38
tp1472
I8
s(I3
I31
tp1473
I11
s(I15
I39
tp1474
I11
s(I19
I32
tp1475
I60
s(I20
I27
tp1476
I8
s(I3
I37
tp1477
I8
s(I16
I11
tp1478
I11
s(I21
I26
tp1479
I60
s(I4
I38
tp1480
I8
s(I19
I6
tp1481
I60
s(I17
I10
tp1482
I8
s(I22
I17
tp1483
I8
s(I5
I39
tp1484
I11
s(I20
I1
tp1485
I8
s(I18
I17
tp1486
I8
s(I23
I20
tp1487
I8
s(I21
I4
tp1488
I8
s(I8
I7
tp1489
I8
s(I22
I11
tp1490
I8
s(I9
I6
tp1491
I8
s(I10
I5
tp1492
I60
s(I11
I8
tp1493
I11
s(I24
I16
tp1494
I11
s(I14
I7
tp1495
I8
s(I15
I6
tp1496
I8
s(I23
I32
tp1497
I8
s(I3
I4
tp1498
I8
s(I4
I7
tp1499
I8
s(I5
I6
tp1500
I8
s(I20
I34
tp1501
I8
s(I16
I2
tp1502
I8
s(I21
I35
tp1503
I8
s(I19
I15
tp1504
I60
s(I17
I3
tp1505
I8
s(I5
I32
tp1506
I8
s(I20
I8
tp1507
I8
s(I18
I8
tp1508
I8
s(I16
I24
tp1509
I11
s(I21
I13
tp1510
I60
s(I10
I34
tp1511
I60
s(I17
I37
tp1512
I8
s(I22
I2
tp1513
I8
s(I18
I34
tp1514
I60
s(I23
I11
tp1515
I8
s(I16
I33
tp1516
I8
s(I11
I1
tp1517
I8
s(I24
I23
tp1518
I11
s(I0
I0
tp1519
I11
s(I0
I38
tp1520
I11
s(I24
I35
tp1521
I11
s(I1
I39
tp1522
I11
s(I19
I20
tp1523
I60
s(I2
I36
tp1524
I8
s(I17
I4
tp1525
I8
s(I22
I35
tp1526
I8
s(I20
I23
tp1527
I8
s(I18
I3
tp1528
I8
s(I16
I31
tp1529
I60
s(I6
I38
tp1530
I8
s(I21
I22
tp1531
I8
s(I17
I30
tp1532
I8
s(I7
I39
tp1533
I11
s(I22
I5
tp1534
I8
s(I11
I32
tp1535
I8
s(I18
I29
tp1536
I8
s(I23
I0
tp1537
I11
s(I11
I6
tp1538
I8
s(I24
I30
tp1539
I11
s(I12
I1
tp1540
I8
s(I13
I4
tp1541
I8
s(I0
I7
tp1542
I11
s(I24
I4
tp1543
I11
s(I12
I31
tp1544
I11
s(I1
I6
tp1545
I8
s(I8
I38
tp1546
I8
s(I2
I5
tp1547
I60
s(I23
I38
tp1548
I8
s(I5
I8
tp1549
I11
s(I6
I7
tp1550
I8
s(I19
I29
tp1551
I60
s(I7
I6
tp1552
I8
s(I20
I30
tp1553
I8
s(I16
I22
tp1554
I11
s(I21
I31
tp1555
I8
s(I19
I3
tp1556
I60
s(I17
I23
tp1557
I8
s(I22
I28
tp1558
I8
s(I20
I4
tp1559
I8
s(I18
I20
tp1560
I8
s(I23
I25
tp1561
I8
s(I12
I34
tp1562
I60
s(I8
I2
tp1563
I8
s(I13
I35
tp1564
I8
s(I9
I3
tp1565
I8
s(I24
I11
tp1566
I11
s(I14
I2
tp1567
I8
s(I1
I31
tp1568
I11
s(I16
I38
tp1569
I8
s(I14
I36
tp1570
I8
s(I3
I1
tp1571
I8
s(I15
I33
tp1572
I8
s(I19
I34
tp1573
I60
s(I20
I37
tp1574
I8
s(I3
I39
tp1575
I11
s(I16
I13
tp1576
I11
s(I21
I24
tp1577
I3
s(I4
I32
tp1578
I8
s(I19
I8
tp1579
I60
s(I17
I8
tp1580
I8
s(I22
I23
tp1581
I8
s(I5
I37
tp1582
I8
s(I20
I3
tp1583
I8
s(I18
I15
tp1584
I8
s(I23
I22
tp1585
I8
s(I21
I2
tp1586
I8
s(I17
I34
tp1587
I60
s(I22
I9
tp1588
I8
s(I9
I4
tp1589
I8
s(I23
I12
tp1590
I8
s(I10
I3
tp1591
I8
s(I24
I18
tp1592
I11
s(I14
I5
tp1593
I60
s(I15
I0
tp1594
I11
s(I3
I6
tp1595
I8
s(I8
I36
tp1596
I8
s(I4
I1
tp1597
I8
s(I0
I33
tp1598
I11
s(I23
I36
tp1599
I8
s(I5
I4
tp1600
I8
s(I16
I4
tp1601
I8
s(I21
I33
tp1602
I8
s(I19
I17
tp1603
I60
s(I17
I1
tp1604
I8
s(I20
I10
tp1605
I8
s(I18
I6
tp1606
I8
s(I16
I26
tp1607
I11
s(I21
I11
tp1608
I8
s(I10
I32
tp1609
I8
s(I17
I27
tp1610
I8
s(I22
I0
tp1611
I11
s(I9
I33
tp1612
I8
s(I18
I32
tp1613
I8
s(I23
I5
tp1614
I8
s(I16
I36
tp1615
I8
s(I11
I3
tp1616
I8
s(I24
I25
tp1617
I11
s(I12
I4
tp1618
I8
s(I0
I2
tp1619
I11
s(I1
I3
tp1620
I8
s(I4
I8
tp1621
I11
s(I2
I8
tp1622
I11
s(I24
I37
tp1623
I11
s(I1
I37
tp1624
I8
s(I6
I2
tp1625
I8
s(I19
I22
tp1626
I60
s(I2
I34
tp1627
I60
s(I22
I33
tp1628
I8
s(I20
I17
tp1629
I8
s(I18
I1
tp1630
I8
s(I16
I17
tp1631
I11
s(I6
I36
tp1632
I8
s(I21
I20
tp1633
I8
s(I17
I28
tp1634
I8
s(I7
I33
tp1635
I8
s(I22
I27
tp1636
I8
s(I11
I34
tp1637
I60
s(I18
I27
tp1638
I8
s(I23
I2
tp1639
I8
s(I12
I37
tp1640
I8
s(I12
I3
tp1641
I8
s(I10
I31
tp1642
I11
s(I13
I2
tp1643
I8
s(I24
I6
tp1644
I11
s(I1
I4
tp1645
I8
s(I2
I3
tp1646
I8
s(I14
I35
tp1647
I8
s(I6
I5
tp1648
I60
s(I8
I34
tp1649
I60
s(I19
I31
tp1650
I60
s(I7
I0
tp1651
I11
s(I20
I24
tp1652
I3
s(I3
I32
tp1653
I8
s(I16
I8
tp1654
I60
s(I6
I31
tp1655
I11
s(I21
I29
tp1656
I8
s(I19
I5
tp1657
I60
s(I17
I21
tp1658
I8
s(I22
I18
tp1659
I8
s(I20
I6
tp1660
I8
s(I18
I18
tp1661
I8
s(I23
I27
tp1662
I8
s(I21
I7
tp1663
I8
s(I8
I4
tp1664
I8
s(I13
I33
tp1665
I8
s(I9
I35
tp1666
I8
s(I9
I1
tp1667
I8
s(I10
I6
tp1668
I8
s(I15
I31
tp1669
I11
s(I16
I34
tp1670
I60
s(I24
I13
tp1671
I11
s(I14
I0
tp1672
I11
s(I15
I5
tp1673
I60
s(I3
I3
tp1674
I8
s(I15
I35
tp1675
I8
s(I4
I4
tp1676
I8
s(I19
I36
tp1677
I60
s(I20
I39
tp1678
I11
s(I17
I35
tp1679
I8
s(I16
I15
tp1680
I11
s(I21
I38
tp1681
I8
s(I4
I34
tp1682
I60
s(I19
I10
tp1683
I60
s(I17
I14
tp1684
I8
s(I22
I21
tp1685
I8
s(I5
I35
tp1686
I8
s(I20
I13
tp1687
I60
s(I18
I13
tp1688
I8
s(I23
I16
tp1689
I8
s(I21
I0
tp1690
I11
s(I10
I39
tp1691
I11
s(I17
I32
tp1692
I8
s(I22
I15
tp1693
I8
s(I18
I39
tp1694
I11
s(I23
I14
tp1695
I8
s(I10
I1
tp1696
I8
s(I24
I20
tp1697
I11
s(I15
I2
tp1698
I8
s(I9
I39
tp1699
I11
s(I3
I8
tp1700
I11
s(I1
I8
tp1701
I11
s(I4
I3
tp1702
I8
s(I0
I35
tp1703
I11
s(I24
I32
tp1704
I11
s(I5
I2
tp1705
I8
s(I1
I34
tp1706
I60
s(I16
I6
tp1707
I8
s(I8
I32
tp1708
I8
s(I19
I19
tp1709
I60
s(I17
I7
tp1710
I8
s(I20
I20
tp1711
I8
s(I18
I4
tp1712
I8
s(I16
I28
tp1713
I11
s(I6
I35
tp1714
I8
s(I21
I9
tp1715
I8
s(I17
I25
tp1716
I8
s(I22
I6
tp1717
I8
s(I18
I30
tp1718
I8
s(I23
I7
tp1719
I8
s(I10
I8
tp1720
I11
s(I11
I5
tp1721
I60
s(I24
I27
tp1722
I11
s(I12
I6
tp1723
I8
s(I13
I7
tp1724
I8
s(I0
I4
tp1725
I11
s(I24
I1
tp1726
I11
s(I1
I1
tp1727
I8
s(I2
I6
tp1728
I8
s(I24
I39
tp1729
I11
s(I6
I0
tp1730
I11
s(I19
I24
tp1731
I60
s(I2
I32
tp1732
I8
s(I7
I5
tp1733
I60
s(I22
I39
tp1734
I11
s(I20
I19
tp1735
I8
s(I16
I19
tp1736
I11
s(I21
I18
tp1737
I8
s(I17
I18
tp1738
I8
s(I7
I35
tp1739
I8
s(I22
I25
tp1740
I8
s(I11
I36
tp1741
I8
s(I18
I25
tp1742
I8
s(I23
I28
tp1743
I8
s(I12
I39
tp1744
I11
s(I8
I31
tp1745
I11
s(I13
I38
tp1746
I8
s(I13
I0
tp1747
I11
s(I24
I8
tp1748
I11
s(I2
I1
tp1749
I8
s(I14
I33
tp1750
I8
s(I15
I36
tp1751
I8
s(I4
I31
tp1752
I11
s(I19
I33
tp1753
I60
s(I7
I2
tp1754
I8
s(I20
I26
tp1755
I60
s(I3
I34
tp1756
I60
s(I16
I10
tp1757
I11
s(I21
I27
tp1758
I8
s(I4
I37
tp1759
I8
s(I19
I7
tp1760
I60
s(I17
I11
tp1761
I8
s(I22
I16
tp1762
I8
s(I20
I0
tp1763
I11
s(I18
I16
tp1764
I8
s(I16
I32
tp1765
I8
s(I21
I5
tp1766
I8
s(I8
I6
tp1767
I8
s(I22
I10
tp1768
I8
s(I9
I7
tp1769
I8
s(I10
I4
tp1770
I8
s(I24
I15
tp1771
I11
s(I14
I6
tp1772
I8
s(I15
I7
tp1773
I8
s(I0
I8
tp1774
I11
s(I3
I5
tp1775
I60
s(I4
I6
tp1776
I8
s(I19
I38
tp1777
I60
s(I5
I7
tp1778
I8
s(I20
I33
tp1779
I8
s(I16
I1
tp1780
I8
s(I21
I36
tp1781
I8
s(I23
I18
tp1782
I8
s(I19
I12
tp1783
I60
s(I17
I12
tp1784
I8
s(I5
I33
tp1785
I8
s(I20
I15
tp1786
I3
s(I9
I38
tp1787
I8
s(I16
I39
tp1788
I11
s(I21
I14
tp1789
I8
s(I10
I37
tp1790
I8
s(I17
I38
tp1791
I8
s(I22
I13
tp1792
I60
s(I9
I8
tp1793
I11
s(I23
I8
tp1794
I8
s(I24
I22
tp1795
I11
s(I23
I35
tp1796
I8
s(I0
I37
tp1797
I11
s(I24
I34
tp1798
I11
s(I5
I0
tp1799
I11
s(I1
I32
tp1800
I8
s(I19
I21
tp1801
I60
s(I2
I39
tp1802
I11
s(I17
I5
tp1803
I60
s(I22
I34
tp1804
I8
s(I20
I22
tp1805
I8
s(I18
I2
tp1806
I8
s(I16
I30
tp1807
I11
s(I6
I33
tp1808
I8
s(I21
I23
tp1809
I8
s(I17
I31
tp1810
I8
s(I7
I36
tp1811
I8
s(I22
I4
tp1812
I8
s(I11
I33
tp1813
I8
s(I18
I28
tp1814
I8
s(I23
I1
tp1815
I8
s(I11
I7
tp1816
I8
s(I24
I29
tp1817
I11
s(I12
I0
tp1818
I11
s(I23
I39
tp1819
I11
s(I13
I5
tp1820
I60
s(I0
I6
tp1821
I11
s(I24
I3
tp1822
I11
s(I1
I7
tp1823
I8
s(I13
I31
tp1824
I11
s(I2
I4
tp1825
I8
s(I6
I6
tp1826
I8
s(I19
I26
tp1827
I60
s(I7
I7
tp1828
I8
s(I22
I37
tp1829
I8
s(I20
I29
tp1830
I8
s(I16
I21
tp1831
I11
s(I21
I16
tp1832
I8
s(I19
I0
tp1833
I11
s(I17
I16
tp1834
I8
s(I22
I31
tp1835
I8
s(I11
I38
tp1836
I8
s(I18
I23
tp1837
I8
s(I23
I30
tp1838
I8
s(I12
I33
tp1839
I8
s(I8
I1
tp1840
I8
s(I13
I36
tp1841
I8
s(I24
I10
tp1842
I11
s(I8
I39
tp1843
I11
s(I2
I31
tp1844
I11
s(I23
I33
tp1845
I8
s(I14
I39
tp1846
I11
s(I15
I38
tp1847
I8
s(I19
I35
tp1848
I60
s(I20
I36
tp1849
I8
s(I3
I36
tp1850
I8
s(I16
I12
tp1851
I11
s(I21
I25
tp1852
I8
s(I4
I39
tp1853
I11
s(I19
I9
tp1854
I60
s(I17
I9
tp1855
I8
s(I22
I22
tp1856
I8
s(I5
I38
tp1857
I8
s(I20
I2
tp1858
I8
s(I18
I14
tp1859
I8
s(I23
I23
tp1860
I8
s(I21
I3
tp1861
I8
s(I8
I8
tp1862
I11
s(I22
I8
tp1863
I8
s(I9
I5
tp1864
I60
s(I23
I13
tp1865
I60
s(I10
I2
tp1866
I8
s(I24
I17
tp1867
I11
s(I14
I4
tp1868
I8
s(I15
I1
tp1869
I8
s(I3
I7
tp1870
I8
s(I4
I0
tp1871
I11
s(I23
I34
tp1872
I8
s(I0
I32
tp1873
I11
s(I5
I5
tp1874
I60
s(I20
I35
tp1875
I8
s(I16
I3
tp1876
I8
s(I21
I34
tp1877
I8
s(I19
I14
tp1878
I60
s(I17
I2
tp1879
I8
s(I20
I9
tp1880
I8
s(I18
I9
tp1881
I8
s(I16
I25
tp1882
I11
s(I21
I12
tp1883
I8
s(I10
I35
tp1884
I8
s(I18
I37
tp1885
I8
s(I17
I36
tp1886
I8
s(I22
I3
tp1887
I8
s(I18
I35
tp1888
I8
s(I23
I10
tp1889
I8
s(I11
I0
tp1890
I11
s(I24
I24
tp1891
I11
s(I0
I1
tp1892
I11
s(I8
I37
tp1893
I8
s(I0
I39
tp1894
I11
s(I24
I36
tp1895
I11
s(I1
I38
tp1896
I8
s(I19
I23
tp1897
I60
s(I2
I37
tp1898
I8
s(I7
I8
tp1899
I11
s(I22
I32
tp1900
I8
s(I20
I16
tp1901
I8
s(I18
I0
tp1902
I11
s(I16
I16
tp1903
I11
s(I6
I39
tp1904
I11
s(I21
I21
tp1905
I8
s(I17
I29
tp1906
I8
s(I7
I38
tp1907
I8
s(I22
I26
tp1908
I60
s(I9
I32
tp1909
I8
s(I18
I26
tp1910
I8
s(I23
I3
tp1911
I8
s(I12
I36
tp1912
I8
s(I16
I37
tp1913
I8
s(I24
I31
tp1914
I11
s(I12
I2
tp1915
I8
s(I13
I3
tp1916
I8
s(I11
I31
tp1917
I11
s(I24
I5
tp1918
I11
s(I1
I5
tp1919
I60
s(I2
I2
tp1920
I8
s(I14
I34
tp1921
I60
s(I6
I4
tp1922
I8
s(I19
I28
tp1923
I60
s(I7
I1
tp1924
I8
s(I20
I31
tp1925
I8
s(I3
I33
tp1926
I8
s(I16
I23
tp1927
I11
s(I21
I30
tp1928
I8
s(I19
I2
tp1929
I60
s(I17
I22
tp1930
I8
s(I7
I31
tp1931
I11
s(I22
I29
tp1932
I8
s(I20
I5
tp1933
I8
s(I18
I21
tp1934
I8
s(I23
I24
tp1935
I8
s(I12
I35
tp1936
I8
s(I8
I3
tp1937
I8
s(I13
I34
tp1938
I60
s(I9
I2
tp1939
I8
s(I0
I31
tp1940
I11
s(I24
I12
tp1941
I11
s(I14
I3
tp1942
I8
s(I14
I37
tp1943
I8
s(I3
I0
tp1944
I11
s(I15
I32
tp1945
I8
s(I8
I35
tp1946
I8
s(I19
I37
tp1947
I60
s(I23
I37
tp1948
I8
s(I20
I38
tp1949
I8
s(I3
I38
tp1950
I8
s(I16
I14
tp1951
I11
s(I21
I39
tp1952
I11
s(I4
I33
tp1953
I8
s(I19
I11
tp1954
I60
s(I17
I15
tp1955
I8
s(I22
I20
tp1956
I8
s(I5
I36
tp1957
I8
s(I20
I12
tp1958
I8
s(I18
I12
tp1959
I8
s(I23
I17
tp1960
I8
s(I21
I1
tp1961
I8
s(I10
I38
tp1962
I8
s(I17
I33
tp1963
I8
s(I22
I14
tp1964
I8
s(I9
I34
tp1965
I60
s(I18
I38
tp1966
I8
s(I23
I15
tp1967
I8
s(I10
I0
tp1968
I11
s(I16
I35
tp1969
I8
s(I24
I19
tp1970
I11
s(I15
I3
tp1971
I8
s(I11
I35
tp1972
I8
s(I4
I2
tp1973
I8
s(I0
I34
tp1974
I11
s(I5
I3
tp1975
I8
s(I1
I35
tp1976
I8
s(I16
I5
tp1977
I60
s(I6
I8
tp1978
I11
s(I21
I32
tp1979
I8
s(I19
I16
tp1980
I60
s(I17
I0
tp1981
I11
s(I20
I11
tp1982
I8
s(I18
I7
tp1983
I8
s(I16
I27
tp1984
I11
s(I6
I34
tp1985
I60
s(I21
I10
tp1986
I8
s(I10
I33
tp1987
I8
s(I17
I26
tp1988
I8
s(I22
I1
tp1989
I8
s(I18
I33
tp1990
I8
s(I23
I4
tp1991
I8
s(I11
I2
tp1992
I8
s(I9
I36
tp1993
I8
s(I24
I26
tp1994
I11
s(I12
I5
tp1995
I60
s(I15
I8
tp1996
I11
s(I13
I8
tp1997
I11
s(I0
I3
tp1998
I11
s(I24
I0
tp1999
I11
s(I1
I2
tp2000
I8
s(I23
I21
tp2001
I8
s(I24
I38
tp2002
I11
s(I1
I36
tp2003
I8
s(I6
I3
tp2004
I8
s(I8
I33
tp2005
I8
s(I19
I25
tp2006
I60
s(I2
I35
tp2007
I8
s(I22
I38
tp2008
I8
s(I20
I18
tp2009
I8
s(I16
I18
tp2010
I11
s(I6
I37
tp2011
I8
s(I21
I19
tp2012
I8
s(I17
I19
tp2013
I8
s(I7
I32
tp2014
I8
s(I22
I24
tp2015
I8
s(I11
I37
tp2016
I8
s(I18
I24
tp2017
I8
s(I23
I29
tp2018
I8
s(I12
I38
tp2019
I8
s(I13
I39
tp2020
I11
s(I9
I31
tp2021
I11
s(I13
I1
tp2022
I8
s(I24
I7
tp2023
I11
s(I2
I0
tp2024
I11
s(I14
I32
tp2025
I8
s(I15
I37
tp2026
I8
s(I19
I30
tp2027
I60
sa(dp2028
(I1
I34
tp2029
I60
s(I7
I3
tp2030
I60
s(I5
I31
tp2031
I60
s(I24
I30
tp2032
I60
s(I16
I9
tp2033
I60
s(I16
I29
tp2034
I60
s(I13
I4
tp2035
I60
s(I19
I4
tp2036
I60
s(I24
I4
tp2037
I60
s(I12
I31
tp2038
I60
s(I23
I26
tp2039
I60
s(I8
I5
tp2040
I60
s(I16
I19
tp2041
I60
s(I5
I8
tp2042
I60
s(I4
I0
tp2043
I60
s(I10
I8
tp2044
I60
s(I9
I0
tp2045
I60
s(I14
I31
tp2046
I60
s(I5
I5
tp2047
I60
s(I11
I5
tp2048
I60
s(I24
I27
tp2049
I60
s(I20
I39
tp2050
I60
s(I19
I14
tp2051
I60
s(I24
I14
tp2052
I60
s(I19
I3
tp2053
I60
s(I0
I4
tp2054
I60
s(I24
I1
tp2055
I60
s(I21
I23
tp2056
I3
s(I9
I39
tp2057
I60
s(I12
I34
tp2058
I60
s(I24
I23
tp2059
I60
s(I15
I34
tp2060
I60
s(I13
I35
tp2061
I60
s(I4
I5
tp2062
I60
s(I19
I39
tp2063
I60
s(I6
I0
tp2064
I60
s(I11
I0
tp2065
I60
s(I24
I24
tp2066
I60
s(I22
I39
tp2067
I60
s(I19
I13
tp2068
I60
s(I16
I5
tp2069
I60
s(I24
I11
tp2070
I60
s(I16
I28
tp2071
I60
s(I5
I34
tp2072
I60
s(I1
I31
tp2073
I60
s(I0
I1
tp2074
I60
s(I7
I35
tp2075
I60
s(I24
I17
tp2076
I60
s(I17
I39
tp2077
I60
s(I12
I39
tp2078
I60
s(I8
I31
tp2079
I60
s(I24
I36
tp2080
I60
s(I13
I38
tp2081
I60
s(I19
I16
tp2082
I60
s(I19
I34
tp2083
I60
s(I19
I23
tp2084
I60
s(I24
I21
tp2085
I60
s(I14
I8
tp2086
I60
s(I13
I0
tp2087
I60
s(I12
I8
tp2088
I60
s(I19
I8
tp2089
I60
s(I18
I0
tp2090
I60
s(I16
I0
tp2091
I60
s(I24
I8
tp2092
I60
s(I6
I39
tp2093
I60
s(I1
I39
tp2094
I60
s(I24
I29
tp2095
I60
s(I7
I38
tp2096
I60
s(I22
I26
tp2097
I60
s(I0
I39
tp2098
I11
s(I24
I22
tp2099
I60
s(I24
I33
tp2100
I60
s(I4
I31
tp2101
I60
s(I19
I33
tp2102
I60
s(I7
I2
tp2103
I60
s(I20
I26
tp2104
I60
s(I3
I34
tp2105
I60
s(I16
I10
tp2106
I60
s(I14
I5
tp2107
I60
s(I13
I3
tp2108
I60
s(I19
I7
tp2109
I60
s(I18
I5
tp2110
I60
s(I24
I28
tp2111
I60
s(I15
I0
tp2112
I60
s(I16
I27
tp2113
I60
s(I20
I0
tp2114
I60
s(I1
I5
tp2115
I60
s(I7
I37
tp2116
I60
s(I14
I34
tp2117
I60
s(I16
I17
tp2118
I60
s(I19
I28
tp2119
I60
s(I7
I1
tp2120
I60
s(I24
I15
tp2121
I60
s(I16
I31
tp2122
I60
s(I19
I2
tp2123
I60
s(I0
I5
tp2124
I60
s(I24
I2
tp2125
I60
s(I3
I39
tp2126
I60
s(I19
I24
tp2127
I60
s(I1
I0
tp2128
I60
s(I0
I8
tp2129
I11
s(I22
I0
tp2130
I60
s(I3
I5
tp2131
I60
s(I13
I34
tp2132
I60
s(I19
I38
tp2133
I60
s(I16
I13
tp2134
I60
s(I19
I29
tp2135
I60
s(I19
I27
tp2136
I60
s(I7
I4
tp2137
I60
s(I24
I18
tp2138
I60
s(I19
I12
tp2139
I60
s(I0
I31
tp2140
I11
s(I24
I12
tp2141
I60
s(I20
I16
tp2142
I3
s(I0
I2
tp2143
I60
s(I7
I34
tp2144
I60
s(I16
I26
tp2145
I60
s(I11
I39
tp2146
I60
s(I22
I13
tp2147
I60
s(I4
I8
tp2148
I60
s(I3
I0
tp2149
I60
s(I2
I8
tp2150
I60
s(I9
I8
tp2151
I60
s(I8
I0
tp2152
I60
s(I24
I37
tp2153
I60
s(I13
I37
tp2154
I60
s(I19
I37
tp2155
I60
s(I16
I16
tp2156
I60
s(I16
I14
tp2157
I60
s(I21
I39
tp2158
I60
s(I19
I11
tp2159
I60
s(I24
I9
tp2160
I60
s(I7
I8
tp2161
I60
s(I16
I22
tp2162
I60
s(I11
I34
tp2163
I60
s(I3
I31
tp2164
I60
s(I0
I37
tp2165
I60
s(I24
I34
tp2166
I60
s(I5
I0
tp2167
I60
s(I19
I32
tp2168
I60
s(I10
I0
tp2169
I60
s(I24
I20
tp2170
I60
s(I15
I39
tp2171
I60
s(I10
I31
tp2172
I60
s(I17
I5
tp2173
I60
s(I16
I11
tp2174
I60
s(I13
I2
tp2175
I60
s(I19
I6
tp2176
I60
s(I24
I6
tp2177
I60
s(I5
I39
tp2178
I60
s(I4
I39
tp2179
I60
s(I15
I31
tp2180
I60
s(I7
I36
tp2181
I60
s(I16
I25
tp2182
I60
s(I19
I9
tp2183
I60
s(I0
I34
tp2184
I60
s(I6
I5
tp2185
I60
s(I19
I31
tp2186
I60
s(I10
I5
tp2187
I60
s(I7
I0
tp2188
I60
s(I6
I8
tp2189
I60
s(I12
I0
tp2190
I60
s(I11
I8
tp2191
I60
s(I23
I39
tp2192
I60
s(I17
I0
tp2193
I60
s(I16
I8
tp2194
I60
s(I6
I31
tp2195
I60
s(I13
I5
tp2196
I60
s(I19
I5
tp2197
I60
s(I24
I3
tp2198
I60
s(I6
I34
tp2199
I60
s(I24
I13
tp2200
I60
s(I13
I31
tp2201
I60
s(I24
I19
tp2202
I60
s(I2
I39
tp2203
I60
s(I21
I16
tp2204
I3
s(I19
I26
tp2205
I60
s(I0
I36
tp2206
I60
s(I24
I26
tp2207
I60
s(I7
I39
tp2208
I60
s(I12
I5
tp2209
I60
s(I19
I15
tp2210
I60
s(I15
I8
tp2211
I60
s(I14
I0
tp2212
I60
s(I13
I8
tp2213
I60
s(I19
I0
tp2214
I60
s(I21
I26
tp2215
I60
s(I0
I3
tp2216
I60
s(I24
I0
tp2217
I11
s(I21
I13
tp2218
I60
s(I10
I34
tp2219
I60
s(I16
I23
tp2220
I60
s(I24
I25
tp2221
I60
s(I7
I5
tp2222
I60
s(I16
I24
tp2223
I60
s(I24
I39
tp2224
I11
s(I18
I34
tp2225
I60
s(I24
I38
tp2226
I60
s(I13
I36
tp2227
I60
s(I19
I36
tp2228
I60
s(I10
I39
tp2229
I60
s(I7
I31
tp2230
I60
s(I19
I25
tp2231
I60
s(I24
I31
tp2232
I60
s(I16
I15
tp2233
I60
s(I16
I30
tp2234
I60
s(I4
I34
tp2235
I60
s(I19
I10
tp2236
I60
s(I24
I10
tp2237
I60
s(I20
I13
tp2238
I60
s(I0
I0
tp2239
I11
s(I8
I39
tp2240
I60
s(I21
I0
tp2241
I60
s(I2
I31
tp2242
I60
s(I16
I20
tp2243
I60
s(I14
I39
tp2244
I60
s(I24
I32
tp2245
I60
s(I18
I39
tp2246
I60
s(I0
I38
tp2247
I60
s(I24
I35
tp2248
I60
s(I13
I39
tp2249
I60
s(I19
I35
tp2250
I60
s(I16
I18
tp2251
I60
s(I9
I31
tp2252
I60
s(I24
I16
tp2253
I60
s(I16
I21
tp2254
I60
s(I16
I12
tp2255
I60
s(I13
I1
tp2256
I60
s(I20
I23
tp2257
I3
s(I19
I1
tp2258
I60
s(I8
I34
tp2259
I60
s(I24
I7
tp2260
I60
s(I16
I34
tp2261
I60
s(I3
I8
tp2262
I60
s(I2
I0
tp2263
I60
s(I1
I8
tp2264
I60
s(I8
I8
tp2265
I60
s(I23
I0
tp2266
I60
s(I16
I39
tp2267
I60
s(I11
I31
tp2268
I60
s(I0
I35
tp2269
I60
s(I23
I13
tp2270
I60
s(I24
I5
tp2271
I60
s(I19
I30
tp2272
I60
sa(dp2273
(I1
I34
tp2274
I60
s(I7
I3
tp2275
I60
s(I24
I30
tp2276
I60
s(I16
I9
tp2277
I60
s(I13
I4
tp2278
I60
s(I19
I4
tp2279
I60
s(I24
I4
tp2280
I60
s(I23
I26
tp2281
I60
s(I8
I5
tp2282
I60
s(I16
I19
tp2283
I60
s(I10
I8
tp2284
I60
s(I14
I31
tp2285
I60
s(I5
I5
tp2286
I60
s(I19
I29
tp2287
I60
s(I24
I27
tp2288
I60
s(I19
I14
tp2289
I60
s(I24
I14
tp2290
I60
s(I19
I3
tp2291
I60
s(I24
I1
tp2292
I60
s(I12
I34
tp2293
I60
s(I24
I23
tp2294
I60
s(I15
I34
tp2295
I60
s(I13
I35
tp2296
I60
s(I4
I5
tp2297
I60
s(I6
I0
tp2298
I60
s(I19
I24
tp2299
I60
s(I7
I5
tp2300
I60
s(I22
I39
tp2301
I60
s(I19
I13
tp2302
I60
s(I24
I29
tp2303
I60
s(I24
I11
tp2304
I60
s(I5
I34
tp2305
I60
s(I7
I35
tp2306
I60
s(I24
I17
tp2307
I60
s(I0
I39
tp2308
I11
s(I24
I36
tp2309
I60
s(I13
I38
tp2310
I60
s(I19
I34
tp2311
I60
s(I19
I23
tp2312
I60
s(I24
I21
tp2313
I60
s(I14
I8
tp2314
I60
s(I19
I8
tp2315
I60
s(I18
I0
tp2316
I60
s(I24
I8
tp2317
I60
s(I6
I39
tp2318
I60
s(I7
I38
tp2319
I60
s(I22
I26
tp2320
I60
s(I24
I33
tp2321
I60
s(I19
I33
tp2322
I60
s(I7
I2
tp2323
I60
s(I20
I26
tp2324
I60
s(I3
I34
tp2325
I60
s(I24
I18
tp2326
I60
s(I14
I5
tp2327
I60
s(I13
I3
tp2328
I60
s(I19
I7
tp2329
I60
s(I18
I5
tp2330
I60
s(I24
I28
tp2331
I60
s(I24
I5
tp2332
I60
s(I1
I5
tp2333
I60
s(I7
I37
tp2334
I60
s(I14
I34
tp2335
I60
s(I24
I9
tp2336
I60
s(I19
I28
tp2337
I60
s(I7
I1
tp2338
I60
s(I19
I17
tp2339
I60
s(I24
I15
tp2340
I60
s(I19
I2
tp2341
I60
s(I10
I39
tp2342
I60
s(I24
I2
tp2343
I60
s(I0
I8
tp2344
I11
s(I22
I0
tp2345
I60
s(I3
I5
tp2346
I60
s(I13
I34
tp2347
I60
s(I19
I38
tp2348
I60
s(I16
I18
tp2349
I60
s(I11
I5
tp2350
I60
s(I19
I27
tp2351
I60
s(I7
I4
tp2352
I60
s(I19
I12
tp2353
I60
s(I0
I31
tp2354
I11
s(I24
I12
tp2355
I60
s(I21
I17
tp2356
I3
s(I19
I1
tp2357
I60
s(I7
I34
tp2358
I60
s(I22
I13
tp2359
I60
s(I2
I8
tp2360
I60
s(I24
I37
tp2361
I60
s(I13
I37
tp2362
I60
s(I19
I37
tp2363
I60
s(I16
I16
tp2364
I60
s(I19
I22
tp2365
I60
s(I24
I22
tp2366
I60
s(I20
I17
tp2367
I3
s(I19
I11
tp2368
I60
s(I16
I17
tp2369
I60
s(I16
I22
tp2370
I60
s(I11
I34
tp2371
I60
s(I24
I34
tp2372
I60
s(I19
I32
tp2373
I60
s(I10
I0
tp2374
I60
s(I10
I31
tp2375
I60
s(I17
I5
tp2376
I60
s(I24
I19
tp2377
I60
s(I13
I2
tp2378
I60
s(I20
I22
tp2379
I3
s(I19
I6
tp2380
I60
s(I24
I6
tp2381
I60
s(I7
I36
tp2382
I60
s(I6
I5
tp2383
I60
s(I19
I31
tp2384
I60
s(I10
I5
tp2385
I60
s(I16
I5
tp2386
I60
s(I6
I8
tp2387
I60
s(I19
I16
tp2388
I60
s(I16
I8
tp2389
I60
s(I6
I31
tp2390
I60
s(I13
I5
tp2391
I60
s(I19
I5
tp2392
I60
s(I24
I3
tp2393
I60
s(I6
I34
tp2394
I60
s(I16
I21
tp2395
I60
s(I2
I39
tp2396
I60
s(I19
I26
tp2397
I60
s(I24
I26
tp2398
I60
s(I12
I5
tp2399
I60
s(I19
I15
tp2400
I60
s(I24
I13
tp2401
I60
s(I14
I0
tp2402
I60
s(I21
I26
tp2403
I60
s(I24
I0
tp2404
I11
s(I21
I13
tp2405
I60
s(I10
I34
tp2406
I60
s(I16
I23
tp2407
I60
s(I24
I25
tp2408
I60
s(I16
I24
tp2409
I60
s(I24
I39
tp2410
I11
s(I18
I34
tp2411
I60
s(I24
I38
tp2412
I60
s(I13
I36
tp2413
I60
s(I19
I36
tp2414
I60
s(I19
I25
tp2415
I60
s(I24
I31
tp2416
I60
s(I16
I15
tp2417
I60
s(I16
I30
tp2418
I60
s(I4
I34
tp2419
I60
s(I19
I10
tp2420
I60
s(I24
I10
tp2421
I60
s(I20
I13
tp2422
I60
s(I0
I0
tp2423
I11
s(I2
I31
tp2424
I60
s(I16
I20
tp2425
I60
s(I14
I39
tp2426
I60
s(I24
I32
tp2427
I60
s(I18
I39
tp2428
I60
s(I24
I35
tp2429
I60
s(I19
I35
tp2430
I60
s(I24
I16
tp2431
I60
s(I24
I20
tp2432
I60
s(I13
I1
tp2433
I60
s(I19
I9
tp2434
I60
s(I8
I34
tp2435
I60
s(I16
I31
tp2436
I60
s(I21
I22
tp2437
I3
s(I16
I34
tp2438
I60
s(I2
I0
tp2439
I60
s(I24
I24
tp2440
I60
s(I23
I0
tp2441
I11
s(I23
I13
tp2442
I60
s(I24
I7
tp2443
I60
s(I19
I30
tp2444
I60
sa(dp2445
(I1
I34
tp2446
I60
s(I7
I3
tp2447
I60
s(I5
I31
tp2448
I60
s(I24
I30
tp2449
I60
s(I16
I9
tp2450
I60
s(I16
I29
tp2451
I60
s(I13
I4
tp2452
I60
s(I19
I4
tp2453
I60
s(I0
I7
tp2454
I60
s(I24
I4
tp2455
I60
s(I12
I31
tp2456
I60
s(I16
I10
tp2457
I60
s(I23
I26
tp2458
I60
s(I2
I5
tp2459
I60
s(I8
I5
tp2460
I60
s(I16
I19
tp2461
I60
s(I5
I8
tp2462
I60
s(I4
I0
tp2463
I60
s(I10
I8
tp2464
I60
s(I9
I0
tp2465
I60
s(I0
I32
tp2466
I60
s(I14
I31
tp2467
I60
s(I5
I5
tp2468
I60
s(I11
I5
tp2469
I60
s(I5
I34
tp2470
I60
s(I24
I27
tp2471
I60
s(I20
I39
tp2472
I60
s(I19
I14
tp2473
I60
s(I24
I14
tp2474
I60
s(I19
I3
tp2475
I60
s(I0
I4
tp2476
I60
s(I24
I1
tp2477
I60
s(I9
I39
tp2478
I60
s(I12
I34
tp2479
I60
s(I24
I23
tp2480
I60
s(I15
I34
tp2481
I60
s(I13
I35
tp2482
I60
s(I4
I5
tp2483
I60
s(I19
I39
tp2484
I60
s(I6
I0
tp2485
I60
s(I11
I0
tp2486
I60
s(I24
I24
tp2487
I60
s(I22
I39
tp2488
I60
s(I19
I13
tp2489
I60
s(I16
I5
tp2490
I60
s(I24
I11
tp2491
I60
s(I16
I28
tp2492
I60
s(I21
I18
tp2493
I3
s(I1
I31
tp2494
I60
s(I0
I1
tp2495
I60
s(I7
I35
tp2496
I60
s(I24
I17
tp2497
I60
s(I17
I39
tp2498
I60
s(I12
I39
tp2499
I60
s(I8
I31
tp2500
I60
s(I24
I36
tp2501
I60
s(I13
I38
tp2502
I60
s(I19
I16
tp2503
I60
s(I19
I34
tp2504
I60
s(I19
I23
tp2505
I60
s(I24
I21
tp2506
I60
s(I14
I8
tp2507
I60
s(I13
I0
tp2508
I60
s(I12
I8
tp2509
I60
s(I19
I8
tp2510
I60
s(I18
I0
tp2511
I60
s(I16
I0
tp2512
I60
s(I24
I8
tp2513
I60
s(I6
I39
tp2514
I60
s(I21
I21
tp2515
I3
s(I1
I39
tp2516
I60
s(I24
I29
tp2517
I60
s(I9
I34
tp2518
I60
s(I7
I38
tp2519
I60
s(I22
I26
tp2520
I60
s(I17
I34
tp2521
I60
s(I0
I39
tp2522
I11
s(I24
I22
tp2523
I60
s(I24
I33
tp2524
I60
s(I4
I31
tp2525
I60
s(I19
I33
tp2526
I60
s(I7
I2
tp2527
I60
s(I20
I26
tp2528
I60
s(I3
I34
tp2529
I60
s(I24
I18
tp2530
I60
s(I14
I5
tp2531
I60
s(I13
I3
tp2532
I60
s(I20
I21
tp2533
I3
s(I19
I7
tp2534
I60
s(I18
I5
tp2535
I60
s(I24
I28
tp2536
I60
s(I15
I0
tp2537
I60
s(I16
I27
tp2538
I60
s(I20
I0
tp2539
I60
s(I1
I5
tp2540
I60
s(I7
I37
tp2541
I60
s(I14
I34
tp2542
I60
s(I0
I33
tp2543
I60
s(I16
I17
tp2544
I60
s(I19
I28
tp2545
I60
s(I7
I1
tp2546
I60
s(I19
I17
tp2547
I60
s(I24
I15
tp2548
I60
s(I16
I31
tp2549
I60
s(I19
I2
tp2550
I60
s(I0
I5
tp2551
I60
s(I24
I2
tp2552
I60
s(I3
I39
tp2553
I60
s(I19
I24
tp2554
I60
s(I1
I0
tp2555
I60
s(I0
I8
tp2556
I11
s(I22
I0
tp2557
I60
s(I3
I5
tp2558
I60
s(I13
I34
tp2559
I60
s(I19
I38
tp2560
I60
s(I16
I13
tp2561
I60
s(I19
I29
tp2562
I60
s(I19
I27
tp2563
I60
s(I7
I4
tp2564
I60
s(I20
I18
tp2565
I3
s(I19
I12
tp2566
I60
s(I0
I31
tp2567
I11
s(I24
I12
tp2568
I60
s(I19
I1
tp2569
I60
s(I0
I2
tp2570
I60
s(I7
I34
tp2571
I60
s(I16
I26
tp2572
I60
s(I11
I39
tp2573
I60
s(I22
I13
tp2574
I60
s(I4
I8
tp2575
I60
s(I3
I0
tp2576
I60
s(I2
I8
tp2577
I60
s(I9
I8
tp2578
I60
s(I8
I0
tp2579
I60
s(I24
I37
tp2580
I60
s(I13
I37
tp2581
I60
s(I19
I37
tp2582
I60
s(I16
I16
tp2583
I60
s(I19
I22
tp2584
I60
s(I2
I34
tp2585
I60
s(I16
I14
tp2586
I60
s(I21
I39
tp2587
I60
s(I19
I11
tp2588
I60
s(I24
I9
tp2589
I60
s(I7
I8
tp2590
I60
s(I16
I22
tp2591
I60
s(I11
I34
tp2592
I60
s(I24
I0
tp2593
I11
s(I3
I31
tp2594
I60
s(I0
I37
tp2595
I60
s(I24
I34
tp2596
I60
s(I5
I0
tp2597
I60
s(I19
I32
tp2598
I60
s(I10
I0
tp2599
I60
s(I24
I20
tp2600
I60
s(I15
I39
tp2601
I60
s(I10
I31
tp2602
I60
s(I17
I5
tp2603
I60
s(I16
I11
tp2604
I60
s(I13
I2
tp2605
I60
s(I19
I6
tp2606
I60
s(I24
I6
tp2607
I60
s(I5
I39
tp2608
I60
s(I15
I31
tp2609
I60
s(I7
I36
tp2610
I60
s(I16
I25
tp2611
I60
s(I16
I18
tp2612
I60
s(I0
I34
tp2613
I60
s(I6
I5
tp2614
I60
s(I19
I31
tp2615
I60
s(I10
I5
tp2616
I60
s(I7
I0
tp2617
I60
s(I6
I8
tp2618
I60
s(I12
I0
tp2619
I60
s(I11
I8
tp2620
I60
s(I23
I39
tp2621
I60
s(I17
I0
tp2622
I60
s(I16
I8
tp2623
I60
s(I6
I31
tp2624
I60
s(I13
I5
tp2625
I60
s(I19
I5
tp2626
I60
s(I0
I6
tp2627
I60
s(I24
I3
tp2628
I60
s(I6
I34
tp2629
I60
s(I24
I13
tp2630
I60
s(I13
I31
tp2631
I60
s(I24
I19
tp2632
I60
s(I2
I39
tp2633
I60
s(I19
I26
tp2634
I60
s(I0
I36
tp2635
I60
s(I24
I26
tp2636
I60
s(I7
I39
tp2637
I60
s(I12
I5
tp2638
I60
s(I19
I15
tp2639
I60
s(I15
I8
tp2640
I60
s(I14
I0
tp2641
I60
s(I13
I8
tp2642
I60
s(I19
I0
tp2643
I60
s(I21
I26
tp2644
I60
s(I0
I3
tp2645
I60
s(I15
I5
tp2646
I60
s(I21
I13
tp2647
I60
s(I10
I34
tp2648
I60
s(I16
I23
tp2649
I60
s(I24
I25
tp2650
I60
s(I7
I5
tp2651
I60
s(I16
I24
tp2652
I60
s(I24
I39
tp2653
I11
s(I18
I34
tp2654
I60
s(I24
I38
tp2655
I60
s(I13
I36
tp2656
I60
s(I19
I36
tp2657
I60
s(I10
I39
tp2658
I60
s(I7
I31
tp2659
I60
s(I19
I25
tp2660
I60
s(I24
I31
tp2661
I60
s(I16
I15
tp2662
I60
s(I16
I30
tp2663
I60
s(I4
I34
tp2664
I60
s(I19
I10
tp2665
I60
s(I24
I10
tp2666
I60
s(I20
I13
tp2667
I60
s(I0
I0
tp2668
I11
s(I8
I39
tp2669
I60
s(I21
I0
tp2670
I60
s(I2
I31
tp2671
I60
s(I16
I20
tp2672
I60
s(I14
I39
tp2673
I60
s(I24
I32
tp2674
I60
s(I18
I39
tp2675
I60
s(I0
I38
tp2676
I60
s(I24
I35
tp2677
I60
s(I13
I39
tp2678
I60
s(I19
I35
tp2679
I60
s(I9
I31
tp2680
I60
s(I24
I16
tp2681
I60
s(I16
I21
tp2682
I60
s(I16
I12
tp2683
I60
s(I13
I1
tp2684
I60
s(I4
I39
tp2685
I60
s(I19
I9
tp2686
I60
s(I8
I34
tp2687
I60
s(I24
I7
tp2688
I60
s(I16
I34
tp2689
I60
s(I3
I8
tp2690
I60
s(I2
I0
tp2691
I60
s(I1
I8
tp2692
I60
s(I8
I8
tp2693
I60
s(I23
I0
tp2694
I60
s(I16
I39
tp2695
I60
s(I11
I31
tp2696
I60
s(I9
I5
tp2697
I60
s(I0
I35
tp2698
I60
s(I23
I13
tp2699
I60
s(I24
I5
tp2700
I60
s(I19
I30
tp2701
I60
sa(dp2702
(I7
I3
tp2703
I8
s(I5
I31
tp2704
I11
s(I20
I25
tp2705
I8
s(I3
I35
tp2706
I8
s(I16
I9
tp2707
I11
s(I21
I28
tp2708
I8
s(I4
I36
tp2709
I8
s(I19
I4
tp2710
I8
s(I17
I20
tp2711
I8
s(I22
I19
tp2712
I8
s(I20
I7
tp2713
I8
s(I18
I19
tp2714
I8
s(I23
I26
tp2715
I60
s(I21
I6
tp2716
I8
s(I8
I5
tp2717
I8
s(I13
I32
tp2718
I8
s(I9
I0
tp2719
I11
s(I14
I31
tp2720
I11
s(I10
I7
tp2721
I8
s(I24
I14
tp2722
I11
s(I14
I1
tp2723
I8
s(I18
I11
tp2724
I8
s(I15
I4
tp2725
I8
s(I3
I2
tp2726
I8
s(I15
I34
tp2727
I8
s(I4
I5
tp2728
I8
s(I19
I39
tp2729
I11
s(I20
I32
tp2730
I8
s(I16
I0
tp2731
I11
s(I21
I37
tp2732
I8
s(I4
I35
tp2733
I8
s(I19
I13
tp2734
I60
s(I17
I13
tp2735
I8
s(I5
I34
tp2736
I8
s(I20
I14
tp2737
I8
s(I18
I10
tp2738
I8
s(I23
I19
tp2739
I8
s(I21
I15
tp2740
I8
s(I10
I36
tp2741
I8
s(I17
I39
tp2742
I11
s(I22
I12
tp2743
I8
s(I18
I36
tp2744
I8
s(I23
I9
tp2745
I8
s(I24
I21
tp2746
I11
s(I14
I8
tp2747
I11
s(I12
I8
tp2748
I11
s(I0
I36
tp2749
I11
s(I24
I33
tp2750
I11
s(I5
I1
tp2751
I8
s(I1
I33
tp2752
I8
s(I16
I7
tp2753
I60
s(I19
I18
tp2754
I8
s(I2
I38
tp2755
I8
s(I17
I6
tp2756
I8
s(I18
I5
tp2757
I8
s(I16
I29
tp2758
I11
s(I6
I32
tp2759
I8
s(I21
I8
tp2760
I8
s(I17
I24
tp2761
I8
s(I7
I37
tp2762
I8
s(I22
I7
tp2763
I8
s(I18
I31
tp2764
I8
s(I23
I6
tp2765
I8
s(I11
I4
tp2766
I8
s(I24
I28
tp2767
I11
s(I12
I7
tp2768
I8
s(I13
I6
tp2769
I8
s(I0
I5
tp2770
I11
s(I24
I2
tp2771
I11
s(I1
I0
tp2772
I11
s(I2
I7
tp2773
I8
s(I6
I1
tp2774
I8
s(I19
I27
tp2775
I8
s(I2
I33
tp2776
I8
s(I7
I4
tp2777
I8
s(I22
I36
tp2778
I8
s(I20
I28
tp2779
I8
s(I16
I20
tp2780
I60
s(I19
I1
tp2781
I8
s(I17
I17
tp2782
I8
s(I7
I34
tp2783
I8
s(I22
I30
tp2784
I8
s(I9
I37
tp2785
I8
s(I11
I39
tp2786
I11
s(I18
I22
tp2787
I8
s(I23
I31
tp2788
I8
s(I12
I32
tp2789
I8
s(I8
I0
tp2790
I11
s(I13
I37
tp2791
I8
s(I24
I9
tp2792
I11
s(I14
I38
tp2793
I8
s(I3
I31
tp2794
I11
s(I15
I39
tp2795
I11
s(I19
I32
tp2796
I8
s(I20
I27
tp2797
I8
s(I3
I37
tp2798
I8
s(I16
I11
tp2799
I11
s(I21
I26
tp2800
I60
s(I4
I38
tp2801
I8
s(I19
I6
tp2802
I8
s(I17
I10
tp2803
I8
s(I22
I17
tp2804
I8
s(I5
I39
tp2805
I11
s(I20
I1
tp2806
I8
s(I18
I17
tp2807
I8
s(I23
I20
tp2808
I8
s(I21
I4
tp2809
I8
s(I8
I7
tp2810
I8
s(I22
I11
tp2811
I8
s(I9
I6
tp2812
I8
s(I10
I5
tp2813
I8
s(I11
I8
tp2814
I11
s(I24
I16
tp2815
I11
s(I14
I7
tp2816
I8
s(I15
I6
tp2817
I8
s(I23
I32
tp2818
I8
s(I3
I4
tp2819
I8
s(I4
I7
tp2820
I8
s(I5
I6
tp2821
I8
s(I20
I34
tp2822
I8
s(I16
I2
tp2823
I60
s(I21
I35
tp2824
I8
s(I19
I15
tp2825
I8
s(I17
I3
tp2826
I8
s(I5
I32
tp2827
I8
s(I20
I8
tp2828
I8
s(I18
I8
tp2829
I8
s(I16
I24
tp2830
I11
s(I21
I13
tp2831
I60
s(I10
I34
tp2832
I8
s(I17
I37
tp2833
I8
s(I22
I2
tp2834
I8
s(I18
I34
tp2835
I8
s(I23
I11
tp2836
I8
s(I16
I33
tp2837
I60
s(I11
I1
tp2838
I8
s(I24
I23
tp2839
I11
s(I0
I0
tp2840
I11
s(I0
I38
tp2841
I11
s(I24
I35
tp2842
I11
s(I1
I39
tp2843
I11
s(I19
I20
tp2844
I8
s(I2
I36
tp2845
I8
s(I17
I4
tp2846
I8
s(I22
I35
tp2847
I8
s(I18
I3
tp2848
I8
s(I16
I31
tp2849
I60
s(I6
I38
tp2850
I8
s(I17
I30
tp2851
I8
s(I7
I39
tp2852
I11
s(I22
I5
tp2853
I8
s(I11
I32
tp2854
I8
s(I18
I29
tp2855
I8
s(I23
I0
tp2856
I11
s(I11
I6
tp2857
I8
s(I24
I30
tp2858
I11
s(I12
I1
tp2859
I8
s(I13
I4
tp2860
I8
s(I0
I7
tp2861
I11
s(I24
I4
tp2862
I11
s(I12
I31
tp2863
I11
s(I1
I6
tp2864
I8
s(I8
I38
tp2865
I8
s(I2
I5
tp2866
I8
s(I23
I38
tp2867
I8
s(I5
I8
tp2868
I11
s(I6
I7
tp2869
I8
s(I19
I29
tp2870
I8
s(I7
I6
tp2871
I8
s(I20
I30
tp2872
I8
s(I16
I22
tp2873
I60
s(I21
I31
tp2874
I8
s(I19
I3
tp2875
I8
s(I17
I23
tp2876
I8
s(I22
I28
tp2877
I8
s(I20
I4
tp2878
I8
s(I18
I20
tp2879
I8
s(I23
I25
tp2880
I8
s(I12
I34
tp2881
I8
s(I8
I2
tp2882
I8
s(I13
I35
tp2883
I8
s(I9
I3
tp2884
I8
s(I24
I11
tp2885
I11
s(I14
I2
tp2886
I8
s(I1
I31
tp2887
I11
s(I16
I38
tp2888
I60
s(I14
I36
tp2889
I8
s(I3
I1
tp2890
I8
s(I15
I33
tp2891
I8
s(I19
I34
tp2892
I8
s(I20
I37
tp2893
I8
s(I3
I39
tp2894
I11
s(I16
I13
tp2895
I11
s(I21
I24
tp2896
I8
s(I4
I32
tp2897
I8
s(I19
I8
tp2898
I8
s(I17
I8
tp2899
I8
s(I22
I23
tp2900
I8
s(I5
I37
tp2901
I8
s(I20
I3
tp2902
I8
s(I18
I15
tp2903
I8
s(I23
I22
tp2904
I8
s(I21
I2
tp2905
I8
s(I17
I34
tp2906
I8
s(I22
I9
tp2907
I8
s(I9
I4
tp2908
I8
s(I23
I12
tp2909
I8
s(I10
I3
tp2910
I8
s(I24
I18
tp2911
I11
s(I14
I5
tp2912
I8
s(I15
I0
tp2913
I11
s(I3
I6
tp2914
I8
s(I8
I36
tp2915
I8
s(I4
I1
tp2916
I8
s(I0
I33
tp2917
I11
s(I23
I36
tp2918
I8
s(I5
I4
tp2919
I8
s(I16
I4
tp2920
I60
s(I21
I33
tp2921
I8
s(I19
I17
tp2922
I8
s(I17
I1
tp2923
I8
s(I20
I10
tp2924
I8
s(I18
I6
tp2925
I8
s(I16
I26
tp2926
I11
s(I21
I11
tp2927
I8
s(I10
I32
tp2928
I8
s(I17
I27
tp2929
I8
s(I22
I0
tp2930
I11
s(I9
I33
tp2931
I8
s(I18
I32
tp2932
I8
s(I23
I5
tp2933
I8
s(I16
I36
tp2934
I60
s(I11
I3
tp2935
I8
s(I24
I25
tp2936
I11
s(I12
I4
tp2937
I8
s(I0
I2
tp2938
I11
s(I1
I3
tp2939
I8
s(I4
I8
tp2940
I11
s(I2
I8
tp2941
I11
s(I24
I37
tp2942
I11
s(I1
I37
tp2943
I8
s(I6
I2
tp2944
I8
s(I19
I22
tp2945
I8
s(I2
I34
tp2946
I8
s(I22
I33
tp2947
I8
s(I18
I1
tp2948
I8
s(I16
I17
tp2949
I60
s(I6
I36
tp2950
I8
s(I21
I20
tp2951
I8
s(I17
I28
tp2952
I8
s(I7
I33
tp2953
I8
s(I22
I27
tp2954
I8
s(I11
I34
tp2955
I8
s(I18
I27
tp2956
I8
s(I23
I2
tp2957
I8
s(I12
I37
tp2958
I8
s(I12
I3
tp2959
I8
s(I10
I31
tp2960
I11
s(I13
I2
tp2961
I8
s(I24
I6
tp2962
I11
s(I1
I4
tp2963
I8
s(I2
I3
tp2964
I8
s(I14
I35
tp2965
I8
s(I6
I5
tp2966
I8
s(I8
I34
tp2967
I8
s(I19
I31
tp2968
I8
s(I7
I0
tp2969
I11
s(I20
I24
tp2970
I8
s(I3
I32
tp2971
I8
s(I16
I8
tp2972
I60
s(I6
I31
tp2973
I11
s(I21
I29
tp2974
I8
s(I19
I5
tp2975
I8
s(I17
I21
tp2976
I8
s(I22
I18
tp2977
I8
s(I20
I6
tp2978
I8
s(I18
I18
tp2979
I8
s(I23
I27
tp2980
I8
s(I21
I7
tp2981
I8
s(I8
I4
tp2982
I8
s(I13
I33
tp2983
I8
s(I9
I35
tp2984
I8
s(I9
I1
tp2985
I8
s(I10
I6
tp2986
I8
s(I15
I31
tp2987
I11
s(I16
I34
tp2988
I60
s(I24
I13
tp2989
I11
s(I14
I0
tp2990
I11
s(I15
I5
tp2991
I8
s(I3
I3
tp2992
I8
s(I15
I35
tp2993
I8
s(I4
I4
tp2994
I8
s(I19
I36
tp2995
I8
s(I20
I39
tp2996
I11
s(I17
I35
tp2997
I8
s(I16
I15
tp2998
I11
s(I21
I38
tp2999
I8
s(I4
I34
tp3000
I8
s(I19
I10
tp3001
I8
s(I17
I14
tp3002
I8
s(I22
I21
tp3003
I8
s(I5
I35
tp3004
I8
s(I20
I13
tp3005
I60
s(I18
I13
tp3006
I8
s(I23
I16
tp3007
I8
s(I21
I0
tp3008
I11
s(I10
I39
tp3009
I11
s(I17
I32
tp3010
I8
s(I22
I15
tp3011
I8
s(I18
I39
tp3012
I11
s(I23
I14
tp3013
I8
s(I10
I1
tp3014
I8
s(I24
I20
tp3015
I11
s(I15
I2
tp3016
I8
s(I9
I39
tp3017
I11
s(I3
I8
tp3018
I11
s(I1
I8
tp3019
I11
s(I4
I3
tp3020
I8
s(I0
I35
tp3021
I11
s(I24
I32
tp3022
I11
s(I5
I2
tp3023
I8
s(I1
I34
tp3024
I8
s(I16
I6
tp3025
I60
s(I8
I32
tp3026
I8
s(I19
I19
tp3027
I8
s(I17
I7
tp3028
I8
s(I20
I20
tp3029
I8
s(I18
I4
tp3030
I8
s(I16
I28
tp3031
I11
s(I6
I35
tp3032
I8
s(I21
I9
tp3033
I8
s(I17
I25
tp3034
I8
s(I22
I6
tp3035
I8
s(I18
I30
tp3036
I8
s(I23
I7
tp3037
I8
s(I10
I8
tp3038
I11
s(I11
I5
tp3039
I8
s(I24
I27
tp3040
I11
s(I12
I6
tp3041
I8
s(I13
I7
tp3042
I8
s(I0
I4
tp3043
I11
s(I24
I1
tp3044
I11
s(I1
I1
tp3045
I8
s(I2
I6
tp3046
I8
s(I24
I39
tp3047
I11
s(I6
I0
tp3048
I11
s(I19
I24
tp3049
I8
s(I2
I32
tp3050
I8
s(I7
I5
tp3051
I8
s(I22
I39
tp3052
I11
s(I20
I19
tp3053
I8
s(I16
I19
tp3054
I60
s(I17
I18
tp3055
I8
s(I7
I35
tp3056
I8
s(I22
I25
tp3057
I8
s(I11
I36
tp3058
I8
s(I18
I25
tp3059
I8
s(I23
I28
tp3060
I8
s(I12
I39
tp3061
I11
s(I8
I31
tp3062
I11
s(I13
I38
tp3063
I8
s(I13
I0
tp3064
I11
s(I24
I8
tp3065
I11
s(I2
I1
tp3066
I8
s(I14
I33
tp3067
I8
s(I15
I36
tp3068
I8
s(I4
I31
tp3069
I11
s(I19
I33
tp3070
I8
s(I7
I2
tp3071
I8
s(I20
I26
tp3072
I60
s(I3
I34
tp3073
I8
s(I16
I10
tp3074
I11
s(I21
I27
tp3075
I8
s(I4
I37
tp3076
I8
s(I19
I7
tp3077
I8
s(I17
I11
tp3078
I8
s(I22
I16
tp3079
I8
s(I20
I0
tp3080
I11
s(I18
I16
tp3081
I8
s(I16
I32
tp3082
I60
s(I21
I5
tp3083
I8
s(I8
I6
tp3084
I8
s(I22
I10
tp3085
I8
s(I9
I7
tp3086
I8
s(I10
I4
tp3087
I8
s(I24
I15
tp3088
I11
s(I14
I6
tp3089
I8
s(I15
I7
tp3090
I8
s(I0
I8
tp3091
I11
s(I3
I5
tp3092
I8
s(I4
I6
tp3093
I8
s(I19
I38
tp3094
I8
s(I5
I7
tp3095
I8
s(I20
I33
tp3096
I8
s(I16
I1
tp3097
I60
s(I21
I36
tp3098
I8
s(I23
I18
tp3099
I8
s(I19
I12
tp3100
I8
s(I17
I12
tp3101
I8
s(I5
I33
tp3102
I8
s(I20
I15
tp3103
I8
s(I9
I38
tp3104
I8
s(I16
I39
tp3105
I11
s(I21
I14
tp3106
I8
s(I10
I37
tp3107
I8
s(I17
I38
tp3108
I8
s(I22
I13
tp3109
I60
s(I9
I8
tp3110
I11
s(I23
I8
tp3111
I8
s(I24
I22
tp3112
I11
s(I23
I35
tp3113
I8
s(I0
I37
tp3114
I11
s(I24
I34
tp3115
I11
s(I5
I0
tp3116
I11
s(I1
I32
tp3117
I8
s(I19
I21
tp3118
I8
s(I2
I39
tp3119
I11
s(I17
I5
tp3120
I8
s(I22
I34
tp3121
I8
s(I9
I36
tp3122
I8
s(I18
I2
tp3123
I8
s(I16
I30
tp3124
I11
s(I6
I33
tp3125
I8
s(I17
I31
tp3126
I8
s(I7
I36
tp3127
I8
s(I22
I4
tp3128
I8
s(I11
I33
tp3129
I8
s(I18
I28
tp3130
I8
s(I23
I1
tp3131
I8
s(I11
I7
tp3132
I8
s(I24
I29
tp3133
I11
s(I12
I0
tp3134
I11
s(I23
I39
tp3135
I11
s(I13
I5
tp3136
I8
s(I0
I6
tp3137
I11
s(I24
I3
tp3138
I11
s(I1
I7
tp3139
I8
s(I13
I31
tp3140
I11
s(I2
I4
tp3141
I8
s(I6
I6
tp3142
I8
s(I19
I26
tp3143
I60
s(I7
I7
tp3144
I8
s(I22
I37
tp3145
I8
s(I20
I29
tp3146
I8
s(I16
I21
tp3147
I60
s(I19
I0
tp3148
I11
s(I17
I16
tp3149
I8
s(I22
I31
tp3150
I8
s(I11
I38
tp3151
I8
s(I18
I23
tp3152
I8
s(I23
I30
tp3153
I8
s(I12
I33
tp3154
I8
s(I8
I1
tp3155
I8
s(I13
I36
tp3156
I8
s(I24
I10
tp3157
I11
s(I8
I39
tp3158
I11
s(I2
I31
tp3159
I11
s(I23
I33
tp3160
I8
s(I14
I39
tp3161
I11
s(I15
I38
tp3162
I8
s(I19
I35
tp3163
I8
s(I20
I36
tp3164
I8
s(I3
I36
tp3165
I8
s(I16
I12
tp3166
I11
s(I21
I25
tp3167
I8
s(I4
I39
tp3168
I11
s(I19
I9
tp3169
I8
s(I17
I9
tp3170
I8
s(I22
I22
tp3171
I8
s(I5
I38
tp3172
I8
s(I20
I2
tp3173
I8
s(I18
I14
tp3174
I8
s(I23
I23
tp3175
I8
s(I21
I3
tp3176
I8
s(I8
I8
tp3177
I11
s(I22
I8
tp3178
I8
s(I9
I5
tp3179
I8
s(I23
I13
tp3180
I60
s(I10
I2
tp3181
I8
s(I24
I17
tp3182
I11
s(I14
I4
tp3183
I8
s(I15
I1
tp3184
I8
s(I3
I7
tp3185
I8
s(I4
I0
tp3186
I11
s(I23
I34
tp3187
I8
s(I0
I32
tp3188
I11
s(I5
I5
tp3189
I8
s(I20
I35
tp3190
I8
s(I16
I3
tp3191
I60
s(I21
I34
tp3192
I8
s(I19
I14
tp3193
I8
s(I17
I2
tp3194
I8
s(I20
I9
tp3195
I8
s(I18
I9
tp3196
I8
s(I16
I25
tp3197
I11
s(I21
I12
tp3198
I8
s(I10
I35
tp3199
I8
s(I18
I37
tp3200
I8
s(I17
I36
tp3201
I8
s(I22
I3
tp3202
I8
s(I18
I35
tp3203
I8
s(I23
I10
tp3204
I8
s(I11
I0
tp3205
I11
s(I24
I24
tp3206
I11
s(I0
I1
tp3207
I11
s(I8
I37
tp3208
I8
s(I0
I39
tp3209
I11
s(I24
I36
tp3210
I11
s(I1
I38
tp3211
I8
s(I19
I23
tp3212
I8
s(I2
I37
tp3213
I8
s(I7
I8
tp3214
I11
s(I22
I32
tp3215
I8
s(I18
I0
tp3216
I11
s(I16
I16
tp3217
I60
s(I6
I39
tp3218
I11
s(I17
I29
tp3219
I8
s(I7
I38
tp3220
I8
s(I22
I26
tp3221
I60
s(I9
I32
tp3222
I8
s(I18
I26
tp3223
I8
s(I23
I3
tp3224
I8
s(I12
I36
tp3225
I8
s(I16
I37
tp3226
I60
s(I24
I31
tp3227
I11
s(I12
I2
tp3228
I8
s(I13
I3
tp3229
I8
s(I11
I31
tp3230
I11
s(I24
I5
tp3231
I11
s(I1
I5
tp3232
I8
s(I2
I2
tp3233
I8
s(I14
I34
tp3234
I8
s(I6
I4
tp3235
I8
s(I19
I28
tp3236
I8
s(I7
I1
tp3237
I8
s(I20
I31
tp3238
I8
s(I3
I33
tp3239
I8
s(I16
I23
tp3240
I60
s(I21
I30
tp3241
I8
s(I19
I2
tp3242
I8
s(I17
I22
tp3243
I8
s(I7
I31
tp3244
I11
s(I22
I29
tp3245
I8
s(I20
I5
tp3246
I8
s(I18
I21
tp3247
I8
s(I23
I24
tp3248
I8
s(I12
I35
tp3249
I8
s(I8
I3
tp3250
I8
s(I13
I34
tp3251
I8
s(I9
I2
tp3252
I8
s(I0
I31
tp3253
I11
s(I24
I12
tp3254
I11
s(I14
I3
tp3255
I8
s(I14
I37
tp3256
I8
s(I3
I0
tp3257
I11
s(I15
I32
tp3258
I8
s(I8
I35
tp3259
I8
s(I19
I37
tp3260
I8
s(I23
I37
tp3261
I8
s(I20
I38
tp3262
I8
s(I3
I38
tp3263
I8
s(I16
I14
tp3264
I11
s(I21
I39
tp3265
I11
s(I4
I33
tp3266
I8
s(I19
I11
tp3267
I8
s(I17
I15
tp3268
I8
s(I22
I20
tp3269
I8
s(I5
I36
tp3270
I8
s(I20
I12
tp3271
I8
s(I18
I12
tp3272
I8
s(I23
I17
tp3273
I8
s(I21
I1
tp3274
I8
s(I10
I38
tp3275
I8
s(I17
I33
tp3276
I8
s(I22
I14
tp3277
I8
s(I9
I34
tp3278
I8
s(I18
I38
tp3279
I8
s(I23
I15
tp3280
I8
s(I10
I0
tp3281
I11
s(I16
I35
tp3282
I60
s(I24
I19
tp3283
I11
s(I15
I3
tp3284
I8
s(I11
I35
tp3285
I8
s(I4
I2
tp3286
I8
s(I0
I34
tp3287
I11
s(I5
I3
tp3288
I8
s(I1
I35
tp3289
I8
s(I16
I5
tp3290
I60
s(I6
I8
tp3291
I11
s(I21
I32
tp3292
I8
s(I19
I16
tp3293
I8
s(I17
I0
tp3294
I11
s(I20
I11
tp3295
I8
s(I18
I7
tp3296
I8
s(I16
I27
tp3297
I11
s(I6
I34
tp3298
I8
s(I21
I10
tp3299
I8
s(I10
I33
tp3300
I8
s(I17
I26
tp3301
I8
s(I22
I1
tp3302
I8
s(I18
I33
tp3303
I8
s(I23
I4
tp3304
I8
s(I11
I2
tp3305
I8
s(I24
I26
tp3306
I11
s(I12
I5
tp3307
I8
s(I15
I8
tp3308
I11
s(I13
I8
tp3309
I11
s(I0
I3
tp3310
I11
s(I24
I0
tp3311
I11
s(I1
I2
tp3312
I8
s(I23
I21
tp3313
I8
s(I24
I38
tp3314
I11
s(I1
I36
tp3315
I8
s(I6
I3
tp3316
I8
s(I8
I33
tp3317
I8
s(I19
I25
tp3318
I8
s(I2
I35
tp3319
I8
s(I22
I38
tp3320
I8
s(I16
I18
tp3321
I60
s(I6
I37
tp3322
I8
s(I21
I19
tp3323
I8
s(I17
I19
tp3324
I8
s(I7
I32
tp3325
I8
s(I22
I24
tp3326
I8
s(I11
I37
tp3327
I8
s(I18
I24
tp3328
I8
s(I23
I29
tp3329
I8
s(I12
I38
tp3330
I8
s(I13
I39
tp3331
I11
s(I9
I31
tp3332
I11
s(I13
I1
tp3333
I8
s(I24
I7
tp3334
I11
s(I2
I0
tp3335
I11
s(I14
I32
tp3336
I8
s(I15
I37
tp3337
I8
s(I19
I30
tp3338
I8
sa(dp3339
(I16
I6
tp3340
I60
s(I5
I31
tp3341
I60
s(I19
I19
tp3342
I10
s(I24
I30
tp3343
I60
s(I16
I9
tp3344
I60
s(I16
I29
tp3345
I60
s(I0
I7
tp3346
I60
s(I16
I28
tp3347
I60
s(I12
I31
tp3348
I60
s(I23
I26
tp3349
I60
s(I5
I8
tp3350
I60
s(I4
I0
tp3351
I60
s(I10
I8
tp3352
I60
s(I9
I0
tp3353
I60
s(I0
I32
tp3354
I60
s(I14
I31
tp3355
I60
s(I16
I3
tp3356
I60
s(I24
I14
tp3357
I60
s(I9
I31
tp3358
I60
s(I0
I4
tp3359
I60
s(I16
I25
tp3360
I60
s(I9
I39
tp3361
I60
s(I16
I15
tp3362
I60
s(I24
I39
tp3363
I11
s(I19
I39
tp3364
I60
s(I6
I0
tp3365
I60
s(I11
I0
tp3366
I60
s(I24
I24
tp3367
I60
s(I22
I39
tp3368
I60
s(I16
I12
tp3369
I60
s(I19
I13
tp3370
I60
s(I16
I5
tp3371
I60
s(I24
I11
tp3372
I60
s(I24
I4
tp3373
I60
s(I1
I31
tp3374
I60
s(I0
I1
tp3375
I60
s(I16
I38
tp3376
I60
s(I21
I15
tp3377
I10
s(I24
I17
tp3378
I60
s(I17
I39
tp3379
I60
s(I12
I39
tp3380
I60
s(I12
I0
tp3381
I60
s(I0
I39
tp3382
I11
s(I24
I36
tp3383
I60
s(I11
I8
tp3384
I60
s(I19
I23
tp3385
I10
s(I16
I13
tp3386
I60
s(I14
I8
tp3387
I60
s(I13
I0
tp3388
I60
s(I12
I8
tp3389
I60
s(I18
I0
tp3390
I60
s(I24
I8
tp3391
I60
s(I6
I39
tp3392
I60
s(I16
I35
tp3393
I60
s(I22
I26
tp3394
I60
s(I16
I26
tp3395
I60
s(I8
I31
tp3396
I60
s(I0
I36
tp3397
I60
s(I24
I33
tp3398
I60
s(I4
I31
tp3399
I60
s(I16
I7
tp3400
I60
s(I23
I13
tp3401
I60
s(I20
I26
tp3402
I60
s(I19
I18
tp3403
I10
s(I16
I10
tp3404
I60
s(I11
I31
tp3405
I60
s(I16
I4
tp3406
I60
s(I15
I0
tp3407
I60
s(I16
I27
tp3408
I60
s(I20
I0
tp3409
I60
s(I10
I39
tp3410
I60
s(I16
I32
tp3411
I60
s(I0
I33
tp3412
I60
s(I24
I28
tp3413
I60
s(I19
I17
tp3414
I10
s(I24
I15
tp3415
I60
s(I16
I31
tp3416
I60
s(I0
I5
tp3417
I60
s(I7
I31
tp3418
I60
s(I3
I39
tp3419
I60
s(I1
I0
tp3420
I60
s(I0
I8
tp3421
I11
s(I22
I0
tp3422
I60
s(I24
I21
tp3423
I60
s(I16
I1
tp3424
I60
s(I13
I39
tp3425
I60
s(I21
I24
tp3426
I10
s(I8
I39
tp3427
I60
s(I24
I12
tp3428
I60
s(I20
I15
tp3429
I10
s(I0
I2
tp3430
I60
s(I16
I39
tp3431
I60
s(I24
I2
tp3432
I60
s(I11
I39
tp3433
I60
s(I22
I13
tp3434
I60
s(I4
I8
tp3435
I60
s(I3
I0
tp3436
I60
s(I2
I8
tp3437
I60
s(I9
I8
tp3438
I60
s(I8
I0
tp3439
I60
s(I24
I37
tp3440
I60
s(I19
I22
tp3441
I10
s(I16
I14
tp3442
I60
s(I21
I39
tp3443
I60
s(I24
I22
tp3444
I60
s(I24
I9
tp3445
I60
s(I7
I8
tp3446
I60
s(I16
I36
tp3447
I60
s(I3
I31
tp3448
I60
s(I0
I37
tp3449
I60
s(I24
I34
tp3450
I60
s(I5
I0
tp3451
I60
s(I10
I0
tp3452
I60
s(I24
I20
tp3453
I60
s(I19
I21
tp3454
I10
s(I2
I39
tp3455
I60
s(I16
I11
tp3456
I60
s(I21
I26
tp3457
I60
s(I16
I30
tp3458
I60
s(I5
I39
tp3459
I60
s(I4
I39
tp3460
I60
s(I15
I31
tp3461
I60
s(I16
I33
tp3462
I60
s(I24
I1
tp3463
I60
s(I15
I39
tp3464
I60
s(I0
I34
tp3465
I60
s(I24
I29
tp3466
I60
s(I6
I8
tp3467
I60
s(I20
I24
tp3468
I10
s(I19
I16
tp3469
I10
s(I23
I39
tp3470
I60
s(I17
I0
tp3471
I60
s(I16
I8
tp3472
I60
s(I6
I31
tp3473
I60
s(I0
I6
tp3474
I60
s(I24
I3
tp3475
I60
s(I15
I8
tp3476
I60
s(I13
I31
tp3477
I60
s(I24
I19
tp3478
I60
s(I10
I31
tp3479
I60
s(I19
I26
tp3480
I60
s(I24
I26
tp3481
I60
s(I7
I39
tp3482
I60
s(I24
I13
tp3483
I60
s(I14
I0
tp3484
I60
s(I13
I8
tp3485
I60
s(I19
I0
tp3486
I60
s(I0
I3
tp3487
I60
s(I16
I24
tp3488
I60
s(I21
I13
tp3489
I60
s(I24
I25
tp3490
I60
s(I24
I0
tp3491
I11
s(I24
I38
tp3492
I60
s(I20
I39
tp3493
I60
s(I8
I8
tp3494
I60
s(I24
I31
tp3495
I60
s(I24
I23
tp3496
I60
s(I24
I6
tp3497
I60
s(I24
I10
tp3498
I60
s(I20
I13
tp3499
I60
s(I0
I0
tp3500
I11
s(I0
I31
tp3501
I11
s(I21
I0
tp3502
I60
s(I2
I31
tp3503
I60
s(I14
I39
tp3504
I60
s(I18
I39
tp3505
I60
s(I0
I38
tp3506
I60
s(I24
I35
tp3507
I60
s(I24
I27
tp3508
I60
s(I1
I39
tp3509
I60
s(I24
I16
tp3510
I60
s(I19
I20
tp3511
I10
s(I24
I18
tp3512
I60
s(I7
I0
tp3513
I60
s(I24
I5
tp3514
I60
s(I24
I7
tp3515
I60
s(I16
I34
tp3516
I60
s(I3
I8
tp3517
I60
s(I2
I0
tp3518
I60
s(I1
I8
tp3519
I60
s(I16
I0
tp3520
I60
s(I23
I0
tp3521
I60
s(I0
I35
tp3522
I60
s(I24
I32
tp3523
I60
sa(dp3524
(I16
I6
tp3525
I60
s(I6
I39
tp3526
I60
s(I22
I13
tp3527
I60
s(I18
I0
tp3528
I60
s(I16
I9
tp3529
I60
s(I2
I8
tp3530
I60
s(I16
I35
tp3531
I60
s(I22
I26
tp3532
I60
s(I24
I37
tp3533
I60
s(I24
I26
tp3534
I60
s(I2
I39
tp3535
I60
s(I20
I26
tp3536
I60
s(I24
I13
tp3537
I60
s(I14
I0
tp3538
I60
s(I23
I26
tp3539
I60
s(I24
I33
tp3540
I60
s(I24
I0
tp3541
I11
s(I21
I13
tp3542
I60
s(I16
I7
tp3543
I60
s(I10
I8
tp3544
I60
s(I16
I24
tp3545
I60
s(I14
I31
tp3546
I60
s(I16
I36
tp3547
I60
s(I24
I38
tp3548
I60
s(I16
I3
tp3549
I60
s(I24
I28
tp3550
I60
s(I19
I26
tp3551
I60
s(I20
I0
tp3552
I60
s(I14
I8
tp3553
I60
s(I24
I14
tp3554
I60
s(I20
I39
tp3555
I60
s(I16
I32
tp3556
I60
s(I24
I31
tp3557
I60
s(I16
I15
tp3558
I60
s(I24
I1
tp3559
I60
s(I10
I0
tp3560
I60
s(I24
I25
tp3561
I60
s(I24
I34
tp3562
I60
s(I10
I31
tp3563
I60
s(I0
I0
tp3564
I11
s(I21
I26
tp3565
I60
s(I24
I39
tp3566
I11
s(I16
I4
tp3567
I60
s(I2
I31
tp3568
I60
s(I16
I30
tp3569
I60
s(I14
I39
tp3570
I60
s(I6
I0
tp3571
I60
s(I16
I33
tp3572
I60
s(I24
I35
tp3573
I60
s(I16
I0
tp3574
I60
s(I10
I39
tp3575
I60
s(I19
I13
tp3576
I60
s(I16
I5
tp3577
I60
s(I0
I8
tp3578
I11
s(I22
I0
tp3579
I60
s(I20
I13
tp3580
I60
s(I18
I39
tp3581
I60
s(I23
I13
tp3582
I60
s(I24
I29
tp3583
I60
s(I6
I8
tp3584
I60
s(I16
I31
tp3585
I60
s(I16
I38
tp3586
I60
s(I16
I8
tp3587
I60
s(I6
I31
tp3588
I60
s(I16
I34
tp3589
I60
s(I0
I39
tp3590
I11
s(I24
I10
tp3591
I60
s(I16
I1
tp3592
I60
s(I2
I0
tp3593
I60
s(I24
I3
tp3594
I60
s(I24
I30
tp3595
I60
s(I0
I31
tp3596
I11
s(I24
I12
tp3597
I60
s(I22
I39
tp3598
I60
s(I24
I32
tp3599
I60
s(I24
I27
tp3600
I60
s(I16
I39
tp3601
I60
s(I24
I36
tp3602
I60
sa(dp3603
(I16
I6
tp3604
I60
s(I5
I31
tp3605
I60
s(I24
I30
tp3606
I60
s(I16
I9
tp3607
I60
s(I16
I29
tp3608
I60
s(I0
I7
tp3609
I60
s(I16
I28
tp3610
I60
s(I12
I31
tp3611
I60
s(I23
I26
tp3612
I60
s(I5
I8
tp3613
I60
s(I4
I0
tp3614
I60
s(I10
I8
tp3615
I60
s(I9
I0
tp3616
I60
s(I0
I32
tp3617
I60
s(I14
I31
tp3618
I60
s(I16
I3
tp3619
I60
s(I24
I14
tp3620
I60
s(I9
I31
tp3621
I60
s(I0
I4
tp3622
I60
s(I16
I25
tp3623
I60
s(I9
I39
tp3624
I60
s(I16
I15
tp3625
I60
s(I24
I39
tp3626
I11
s(I19
I39
tp3627
I60
s(I6
I0
tp3628
I60
s(I11
I0
tp3629
I60
s(I24
I24
tp3630
I60
s(I22
I39
tp3631
I60
s(I16
I12
tp3632
I60
s(I19
I13
tp3633
I60
s(I16
I5
tp3634
I60
s(I24
I11
tp3635
I60
s(I24
I4
tp3636
I60
s(I1
I31
tp3637
I60
s(I0
I1
tp3638
I60
s(I16
I38
tp3639
I60
s(I24
I17
tp3640
I60
s(I17
I39
tp3641
I60
s(I15
I31
tp3642
I60
s(I12
I39
tp3643
I60
s(I0
I39
tp3644
I11
s(I24
I36
tp3645
I60
s(I3
I39
tp3646
I60
s(I16
I13
tp3647
I60
s(I14
I8
tp3648
I60
s(I13
I0
tp3649
I60
s(I12
I8
tp3650
I60
s(I18
I0
tp3651
I60
s(I24
I8
tp3652
I60
s(I6
I39
tp3653
I60
s(I16
I35
tp3654
I60
s(I22
I26
tp3655
I60
s(I16
I26
tp3656
I60
s(I8
I31
tp3657
I60
s(I0
I36
tp3658
I60
s(I24
I33
tp3659
I60
s(I4
I31
tp3660
I60
s(I16
I7
tp3661
I60
s(I23
I13
tp3662
I60
s(I20
I26
tp3663
I60
s(I16
I10
tp3664
I60
s(I11
I31
tp3665
I60
s(I16
I4
tp3666
I60
s(I15
I0
tp3667
I60
s(I16
I27
tp3668
I60
s(I20
I0
tp3669
I60
s(I10
I39
tp3670
I60
s(I16
I32
tp3671
I60
s(I0
I33
tp3672
I60
s(I24
I28
tp3673
I60
s(I24
I15
tp3674
I60
s(I16
I31
tp3675
I60
s(I0
I5
tp3676
I60
s(I7
I31
tp3677
I60
s(I1
I0
tp3678
I60
s(I0
I8
tp3679
I11
s(I22
I0
tp3680
I60
s(I24
I21
tp3681
I60
s(I16
I1
tp3682
I60
s(I13
I39
tp3683
I60
s(I8
I39
tp3684
I60
s(I24
I12
tp3685
I60
s(I0
I2
tp3686
I60
s(I16
I39
tp3687
I60
s(I24
I2
tp3688
I60
s(I11
I39
tp3689
I60
s(I22
I13
tp3690
I60
s(I4
I8
tp3691
I60
s(I3
I0
tp3692
I60
s(I2
I8
tp3693
I60
s(I9
I8
tp3694
I60
s(I8
I0
tp3695
I60
s(I24
I37
tp3696
I60
s(I16
I14
tp3697
I60
s(I21
I39
tp3698
I60
s(I24
I22
tp3699
I60
s(I24
I9
tp3700
I60
s(I7
I8
tp3701
I60
s(I16
I36
tp3702
I60
s(I3
I31
tp3703
I60
s(I0
I37
tp3704
I60
s(I15
I39
tp3705
I60
s(I5
I0
tp3706
I60
s(I10
I0
tp3707
I60
s(I24
I20
tp3708
I60
s(I24
I34
tp3709
I60
s(I2
I39
tp3710
I60
s(I16
I11
tp3711
I60
s(I21
I26
tp3712
I60
s(I16
I30
tp3713
I60
s(I5
I39
tp3714
I60
s(I4
I39
tp3715
I60
s(I16
I2
tp3716
I60
s(I16
I33
tp3717
I60
s(I24
I1
tp3718
I60
s(I0
I34
tp3719
I60
s(I24
I29
tp3720
I60
s(I6
I8
tp3721
I60
s(I12
I0
tp3722
I60
s(I11
I8
tp3723
I60
s(I23
I39
tp3724
I60
s(I17
I0
tp3725
I60
s(I16
I8
tp3726
I60
s(I6
I31
tp3727
I60
s(I0
I6
tp3728
I60
s(I24
I3
tp3729
I60
s(I15
I8
tp3730
I60
s(I13
I31
tp3731
I60
s(I24
I19
tp3732
I60
s(I10
I31
tp3733
I60
s(I19
I26
tp3734
I60
s(I24
I26
tp3735
I60
s(I7
I39
tp3736
I60
s(I24
I13
tp3737
I60
s(I14
I0
tp3738
I60
s(I13
I8
tp3739
I60
s(I19
I0
tp3740
I60
s(I0
I3
tp3741
I60
s(I16
I24
tp3742
I60
s(I21
I13
tp3743
I60
s(I24
I25
tp3744
I60
s(I24
I0
tp3745
I11
s(I24
I38
tp3746
I60
s(I20
I39
tp3747
I60
s(I8
I8
tp3748
I60
s(I24
I31
tp3749
I60
s(I24
I23
tp3750
I60
s(I24
I6
tp3751
I60
s(I24
I10
tp3752
I60
s(I20
I13
tp3753
I60
s(I0
I0
tp3754
I11
s(I16
I37
tp3755
I60
s(I0
I31
tp3756
I11
s(I21
I0
tp3757
I60
s(I2
I31
tp3758
I60
s(I14
I39
tp3759
I60
s(I18
I39
tp3760
I60
s(I0
I38
tp3761
I60
s(I24
I35
tp3762
I60
s(I24
I27
tp3763
I60
s(I1
I39
tp3764
I60
s(I24
I16
tp3765
I60
s(I24
I18
tp3766
I60
s(I7
I0
tp3767
I60
s(I24
I5
tp3768
I60
s(I24
I7
tp3769
I60
s(I16
I34
tp3770
I60
s(I3
I8
tp3771
I60
s(I2
I0
tp3772
I60
s(I1
I8
tp3773
I60
s(I16
I0
tp3774
I60
s(I23
I0
tp3775
I60
s(I0
I35
tp3776
I60
s(I24
I32
tp3777
I60
sa(dp3778
(I7
I3
tp3779
I8
s(I5
I31
tp3780
I11
s(I20
I25
tp3781
I8
s(I3
I35
tp3782
I8
s(I16
I9
tp3783
I11
s(I21
I28
tp3784
I8
s(I4
I36
tp3785
I8
s(I19
I4
tp3786
I8
s(I17
I20
tp3787
I8
s(I22
I19
tp3788
I8
s(I20
I7
tp3789
I8
s(I18
I19
tp3790
I8
s(I23
I26
tp3791
I8
s(I21
I6
tp3792
I8
s(I8
I5
tp3793
I8
s(I13
I32
tp3794
I8
s(I9
I0
tp3795
I11
s(I14
I31
tp3796
I11
s(I10
I7
tp3797
I8
s(I24
I14
tp3798
I11
s(I14
I1
tp3799
I8
s(I15
I4
tp3800
I8
s(I3
I2
tp3801
I8
s(I15
I34
tp3802
I8
s(I4
I5
tp3803
I8
s(I19
I39
tp3804
I11
s(I20
I32
tp3805
I8
s(I16
I0
tp3806
I11
s(I21
I37
tp3807
I8
s(I4
I35
tp3808
I8
s(I19
I13
tp3809
I8
s(I8
I38
tp3810
I8
s(I5
I34
tp3811
I8
s(I20
I14
tp3812
I8
s(I18
I10
tp3813
I8
s(I16
I38
tp3814
I8
s(I21
I15
tp3815
I8
s(I10
I36
tp3816
I8
s(I17
I39
tp3817
I11
s(I22
I12
tp3818
I8
s(I18
I36
tp3819
I8
s(I23
I9
tp3820
I8
s(I24
I21
tp3821
I11
s(I14
I8
tp3822
I11
s(I12
I8
tp3823
I11
s(I0
I36
tp3824
I11
s(I24
I33
tp3825
I11
s(I5
I1
tp3826
I8
s(I1
I33
tp3827
I8
s(I16
I7
tp3828
I8
s(I19
I18
tp3829
I8
s(I2
I38
tp3830
I8
s(I17
I6
tp3831
I8
s(I20
I21
tp3832
I8
s(I18
I5
tp3833
I8
s(I16
I29
tp3834
I11
s(I6
I32
tp3835
I8
s(I21
I8
tp3836
I8
s(I17
I24
tp3837
I8
s(I7
I37
tp3838
I8
s(I22
I7
tp3839
I8
s(I18
I31
tp3840
I8
s(I23
I6
tp3841
I8
s(I16
I39
tp3842
I11
s(I11
I4
tp3843
I8
s(I24
I28
tp3844
I11
s(I12
I7
tp3845
I8
s(I13
I6
tp3846
I8
s(I0
I5
tp3847
I11
s(I24
I2
tp3848
I11
s(I1
I0
tp3849
I11
s(I2
I7
tp3850
I8
s(I16
I18
tp3851
I11
s(I6
I1
tp3852
I8
s(I19
I27
tp3853
I8
s(I2
I33
tp3854
I8
s(I7
I4
tp3855
I8
s(I22
I36
tp3856
I8
s(I20
I28
tp3857
I8
s(I16
I20
tp3858
I11
s(I21
I17
tp3859
I8
s(I19
I1
tp3860
I8
s(I17
I17
tp3861
I8
s(I7
I34
tp3862
I8
s(I22
I30
tp3863
I8
s(I11
I39
tp3864
I11
s(I18
I22
tp3865
I8
s(I23
I31
tp3866
I8
s(I12
I32
tp3867
I8
s(I8
I0
tp3868
I11
s(I13
I37
tp3869
I8
s(I24
I9
tp3870
I11
s(I14
I38
tp3871
I8
s(I3
I31
tp3872
I11
s(I15
I39
tp3873
I11
s(I19
I32
tp3874
I8
s(I20
I27
tp3875
I8
s(I3
I37
tp3876
I8
s(I16
I11
tp3877
I11
s(I21
I26
tp3878
I8
s(I4
I38
tp3879
I8
s(I19
I6
tp3880
I8
s(I8
I33
tp3881
I8
s(I22
I17
tp3882
I8
s(I5
I39
tp3883
I11
s(I20
I1
tp3884
I8
s(I18
I17
tp3885
I8
s(I16
I33
tp3886
I8
s(I21
I4
tp3887
I8
s(I8
I7
tp3888
I8
s(I22
I11
tp3889
I8
s(I9
I6
tp3890
I8
s(I10
I5
tp3891
I8
s(I11
I8
tp3892
I11
s(I24
I16
tp3893
I11
s(I14
I7
tp3894
I8
s(I15
I6
tp3895
I8
s(I16
I21
tp3896
I11
s(I3
I4
tp3897
I8
s(I4
I7
tp3898
I8
s(I5
I6
tp3899
I8
s(I20
I34
tp3900
I8
s(I16
I2
tp3901
I8
s(I21
I35
tp3902
I8
s(I19
I15
tp3903
I8
s(I17
I3
tp3904
I8
s(I5
I32
tp3905
I8
s(I20
I8
tp3906
I8
s(I9
I37
tp3907
I8
s(I16
I24
tp3908
I11
s(I21
I13
tp3909
I8
s(I10
I34
tp3910
I8
s(I16
I23
tp3911
I11
s(I17
I37
tp3912
I8
s(I22
I2
tp3913
I8
s(I18
I34
tp3914
I8
s(I23
I11
tp3915
I8
s(I11
I1
tp3916
I8
s(I24
I23
tp3917
I11
s(I0
I0
tp3918
I11
s(I0
I38
tp3919
I11
s(I24
I35
tp3920
I11
s(I1
I39
tp3921
I11
s(I19
I20
tp3922
I8
s(I2
I36
tp3923
I8
s(I17
I4
tp3924
I8
s(I22
I35
tp3925
I8
s(I20
I23
tp3926
I8
s(I18
I3
tp3927
I8
s(I16
I31
tp3928
I60
s(I6
I38
tp3929
I8
s(I21
I22
tp3930
I8
s(I17
I30
tp3931
I8
s(I7
I39
tp3932
I11
s(I22
I5
tp3933
I8
s(I11
I32
tp3934
I8
s(I18
I29
tp3935
I8
s(I23
I0
tp3936
I11
s(I11
I6
tp3937
I8
s(I24
I30
tp3938
I11
s(I12
I1
tp3939
I8
s(I13
I4
tp3940
I8
s(I0
I7
tp3941
I11
s(I24
I4
tp3942
I11
s(I12
I31
tp3943
I11
s(I1
I6
tp3944
I8
s(I17
I13
tp3945
I8
s(I2
I5
tp3946
I8
s(I16
I19
tp3947
I11
s(I5
I8
tp3948
I11
s(I6
I7
tp3949
I8
s(I19
I29
tp3950
I8
s(I7
I6
tp3951
I8
s(I20
I30
tp3952
I8
s(I16
I22
tp3953
I11
s(I21
I31
tp3954
I8
s(I19
I3
tp3955
I8
s(I17
I23
tp3956
I8
s(I22
I28
tp3957
I8
s(I9
I39
tp3958
I11
s(I18
I20
tp3959
I8
s(I23
I25
tp3960
I8
s(I12
I34
tp3961
I8
s(I8
I2
tp3962
I8
s(I13
I35
tp3963
I8
s(I9
I3
tp3964
I8
s(I24
I11
tp3965
I11
s(I14
I2
tp3966
I8
s(I1
I31
tp3967
I11
s(I14
I36
tp3968
I8
s(I3
I1
tp3969
I8
s(I15
I33
tp3970
I8
s(I19
I34
tp3971
I8
s(I9
I38
tp3972
I8
s(I20
I37
tp3973
I8
s(I3
I39
tp3974
I11
s(I16
I13
tp3975
I11
s(I21
I24
tp3976
I8
s(I4
I32
tp3977
I8
s(I19
I8
tp3978
I8
s(I8
I35
tp3979
I8
s(I22
I23
tp3980
I8
s(I5
I37
tp3981
I8
s(I20
I3
tp3982
I8
s(I9
I34
tp3983
I8
s(I16
I35
tp3984
I8
s(I21
I2
tp3985
I8
s(I17
I34
tp3986
I8
s(I22
I9
tp3987
I8
s(I9
I4
tp3988
I8
s(I23
I12
tp3989
I8
s(I10
I3
tp3990
I8
s(I24
I18
tp3991
I11
s(I14
I5
tp3992
I8
s(I15
I0
tp3993
I11
s(I3
I6
tp3994
I8
s(I8
I36
tp3995
I8
s(I4
I1
tp3996
I8
s(I0
I33
tp3997
I11
s(I23
I36
tp3998
I8
s(I5
I4
tp3999
I8
s(I16
I4
tp4000
I8
s(I21
I33
tp4001
I8
s(I19
I17
tp4002
I8
s(I17
I1
tp4003
I8
s(I20
I10
tp4004
I8
s(I18
I6
tp4005
I8
s(I16
I26
tp4006
I11
s(I21
I11
tp4007
I8
s(I10
I32
tp4008
I8
s(I17
I27
tp4009
I8
s(I22
I0
tp4010
I11
s(I9
I33
tp4011
I8
s(I18
I32
tp4012
I8
s(I23
I5
tp4013
I8
s(I16
I36
tp4014
I8
s(I11
I3
tp4015
I8
s(I24
I25
tp4016
I11
s(I12
I4
tp4017
I8
s(I0
I2
tp4018
I11
s(I1
I3
tp4019
I8
s(I4
I8
tp4020
I11
s(I2
I8
tp4021
I11
s(I24
I37
tp4022
I11
s(I1
I37
tp4023
I8
s(I6
I2
tp4024
I8
s(I19
I22
tp4025
I8
s(I2
I34
tp4026
I8
s(I22
I33
tp4027
I8
s(I20
I17
tp4028
I8
s(I18
I1
tp4029
I8
s(I16
I17
tp4030
I11
s(I6
I36
tp4031
I8
s(I21
I20
tp4032
I8
s(I17
I28
tp4033
I8
s(I7
I33
tp4034
I8
s(I22
I27
tp4035
I8
s(I11
I34
tp4036
I8
s(I18
I27
tp4037
I8
s(I23
I2
tp4038
I8
s(I12
I37
tp4039
I8
s(I12
I3
tp4040
I8
s(I10
I31
tp4041
I11
s(I13
I2
tp4042
I8
s(I24
I6
tp4043
I11
s(I1
I4
tp4044
I8
s(I2
I3
tp4045
I8
s(I14
I35
tp4046
I8
s(I6
I5
tp4047
I8
s(I17
I9
tp4048
I8
s(I19
I31
tp4049
I8
s(I7
I0
tp4050
I11
s(I20
I24
tp4051
I8
s(I3
I32
tp4052
I8
s(I16
I8
tp4053
I60
s(I6
I31
tp4054
I11
s(I21
I29
tp4055
I8
s(I19
I5
tp4056
I8
s(I17
I21
tp4057
I8
s(I22
I18
tp4058
I8
s(I20
I6
tp4059
I8
s(I18
I18
tp4060
I8
s(I23
I27
tp4061
I8
s(I21
I7
tp4062
I8
s(I8
I4
tp4063
I8
s(I13
I33
tp4064
I8
s(I9
I35
tp4065
I8
s(I9
I1
tp4066
I8
s(I10
I6
tp4067
I8
s(I15
I31
tp4068
I11
s(I16
I34
tp4069
I8
s(I24
I13
tp4070
I11
s(I14
I0
tp4071
I11
s(I15
I5
tp4072
I8
s(I3
I3
tp4073
I8
s(I15
I35
tp4074
I8
s(I4
I4
tp4075
I8
s(I19
I36
tp4076
I8
s(I20
I39
tp4077
I11
s(I8
I8
tp4078
I11
s(I16
I15
tp4079
I11
s(I21
I38
tp4080
I8
s(I4
I34
tp4081
I8
s(I19
I10
tp4082
I8
s(I8
I37
tp4083
I8
s(I22
I21
tp4084
I8
s(I5
I35
tp4085
I8
s(I20
I13
tp4086
I8
s(I9
I32
tp4087
I8
s(I16
I37
tp4088
I8
s(I21
I0
tp4089
I11
s(I10
I39
tp4090
I11
s(I17
I32
tp4091
I8
s(I22
I15
tp4092
I8
s(I18
I39
tp4093
I11
s(I23
I14
tp4094
I8
s(I10
I1
tp4095
I8
s(I24
I20
tp4096
I11
s(I15
I2
tp4097
I8
s(I3
I8
tp4098
I11
s(I1
I8
tp4099
I11
s(I4
I3
tp4100
I8
s(I0
I35
tp4101
I11
s(I24
I32
tp4102
I11
s(I5
I2
tp4103
I8
s(I1
I34
tp4104
I8
s(I16
I6
tp4105
I8
s(I17
I11
tp4106
I8
s(I19
I19
tp4107
I8
s(I17
I7
tp4108
I8
s(I20
I20
tp4109
I8
s(I18
I4
tp4110
I8
s(I16
I28
tp4111
I11
s(I6
I35
tp4112
I8
s(I21
I9
tp4113
I8
s(I17
I25
tp4114
I8
s(I22
I6
tp4115
I8
s(I18
I30
tp4116
I8
s(I23
I7
tp4117
I8
s(I10
I8
tp4118
I11
s(I11
I5
tp4119
I8
s(I24
I27
tp4120
I11
s(I12
I6
tp4121
I8
s(I13
I7
tp4122
I8
s(I0
I4
tp4123
I11
s(I24
I1
tp4124
I11
s(I1
I1
tp4125
I8
s(I2
I6
tp4126
I8
s(I24
I39
tp4127
I11
s(I6
I0
tp4128
I11
s(I19
I24
tp4129
I8
s(I2
I32
tp4130
I8
s(I7
I5
tp4131
I8
s(I22
I39
tp4132
I11
s(I20
I19
tp4133
I8
s(I23
I38
tp4134
I8
s(I21
I18
tp4135
I8
s(I17
I18
tp4136
I8
s(I7
I35
tp4137
I8
s(I22
I25
tp4138
I8
s(I11
I36
tp4139
I8
s(I18
I25
tp4140
I8
s(I23
I28
tp4141
I8
s(I12
I39
tp4142
I11
s(I8
I31
tp4143
I11
s(I13
I38
tp4144
I8
s(I13
I0
tp4145
I11
s(I18
I8
tp4146
I8
s(I24
I8
tp4147
I11
s(I2
I1
tp4148
I8
s(I14
I33
tp4149
I8
s(I15
I36
tp4150
I8
s(I4
I31
tp4151
I11
s(I19
I33
tp4152
I8
s(I7
I2
tp4153
I8
s(I20
I26
tp4154
I8
s(I3
I34
tp4155
I8
s(I16
I10
tp4156
I11
s(I21
I27
tp4157
I8
s(I4
I37
tp4158
I8
s(I19
I7
tp4159
I8
s(I8
I32
tp4160
I8
s(I22
I16
tp4161
I8
s(I20
I0
tp4162
I11
s(I18
I16
tp4163
I8
s(I16
I32
tp4164
I8
s(I21
I5
tp4165
I8
s(I8
I6
tp4166
I8
s(I22
I10
tp4167
I8
s(I9
I7
tp4168
I8
s(I10
I4
tp4169
I8
s(I24
I15
tp4170
I11
s(I14
I6
tp4171
I8
s(I15
I7
tp4172
I8
s(I0
I8
tp4173
I11
s(I3
I5
tp4174
I8
s(I4
I6
tp4175
I8
s(I19
I38
tp4176
I8
s(I5
I7
tp4177
I8
s(I20
I33
tp4178
I8
s(I16
I1
tp4179
I8
s(I21
I36
tp4180
I8
s(I19
I12
tp4181
I8
s(I17
I12
tp4182
I8
s(I5
I33
tp4183
I8
s(I20
I15
tp4184
I8
s(I18
I11
tp4185
I8
s(I23
I18
tp4186
I8
s(I21
I14
tp4187
I8
s(I10
I37
tp4188
I8
s(I17
I38
tp4189
I8
s(I22
I13
tp4190
I8
s(I9
I8
tp4191
I11
s(I23
I8
tp4192
I8
s(I24
I22
tp4193
I11
s(I23
I35
tp4194
I8
s(I0
I37
tp4195
I11
s(I24
I34
tp4196
I11
s(I5
I0
tp4197
I11
s(I1
I32
tp4198
I8
s(I19
I21
tp4199
I8
s(I2
I39
tp4200
I11
s(I17
I5
tp4201
I8
s(I22
I34
tp4202
I8
s(I9
I36
tp4203
I8
s(I18
I2
tp4204
I8
s(I16
I30
tp4205
I11
s(I6
I33
tp4206
I8
s(I21
I23
tp4207
I8
s(I17
I31
tp4208
I8
s(I7
I36
tp4209
I8
s(I22
I4
tp4210
I8
s(I11
I33
tp4211
I8
s(I18
I28
tp4212
I8
s(I23
I1
tp4213
I8
s(I11
I7
tp4214
I8
s(I20
I4
tp4215
I8
s(I24
I29
tp4216
I11
s(I12
I0
tp4217
I11
s(I13
I5
tp4218
I8
s(I0
I6
tp4219
I11
s(I24
I3
tp4220
I11
s(I1
I7
tp4221
I8
s(I13
I31
tp4222
I11
s(I2
I4
tp4223
I8
s(I6
I6
tp4224
I8
s(I19
I26
tp4225
I8
s(I7
I7
tp4226
I8
s(I22
I37
tp4227
I8
s(I20
I29
tp4228
I8
s(I23
I32
tp4229
I8
s(I21
I16
tp4230
I8
s(I19
I0
tp4231
I11
s(I17
I16
tp4232
I8
s(I22
I31
tp4233
I8
s(I11
I38
tp4234
I8
s(I18
I23
tp4235
I8
s(I23
I30
tp4236
I8
s(I12
I33
tp4237
I8
s(I8
I1
tp4238
I8
s(I13
I36
tp4239
I8
s(I24
I10
tp4240
I11
s(I8
I39
tp4241
I11
s(I2
I31
tp4242
I11
s(I23
I33
tp4243
I8
s(I14
I39
tp4244
I11
s(I15
I38
tp4245
I8
s(I19
I35
tp4246
I8
s(I20
I36
tp4247
I8
s(I3
I36
tp4248
I8
s(I16
I12
tp4249
I11
s(I21
I25
tp4250
I8
s(I4
I39
tp4251
I11
s(I19
I9
tp4252
I8
s(I8
I34
tp4253
I8
s(I22
I22
tp4254
I8
s(I5
I38
tp4255
I8
s(I20
I2
tp4256
I8
s(I18
I14
tp4257
I8
s(I23
I23
tp4258
I8
s(I21
I3
tp4259
I8
s(I17
I35
tp4260
I8
s(I22
I8
tp4261
I8
s(I9
I5
tp4262
I8
s(I23
I13
tp4263
I8
s(I10
I2
tp4264
I8
s(I24
I17
tp4265
I11
s(I14
I4
tp4266
I8
s(I15
I1
tp4267
I8
s(I3
I7
tp4268
I8
s(I4
I0
tp4269
I11
s(I0
I32
tp4270
I11
s(I5
I5
tp4271
I8
s(I20
I35
tp4272
I8
s(I16
I3
tp4273
I8
s(I21
I34
tp4274
I8
s(I19
I14
tp4275
I8
s(I17
I2
tp4276
I8
s(I20
I9
tp4277
I8
s(I18
I9
tp4278
I8
s(I16
I25
tp4279
I11
s(I21
I12
tp4280
I8
s(I10
I35
tp4281
I8
s(I18
I37
tp4282
I8
s(I17
I36
tp4283
I8
s(I22
I3
tp4284
I8
s(I18
I35
tp4285
I8
s(I23
I10
tp4286
I8
s(I11
I0
tp4287
I11
s(I24
I24
tp4288
I11
s(I0
I1
tp4289
I11
s(I17
I14
tp4290
I8
s(I0
I39
tp4291
I11
s(I24
I36
tp4292
I11
s(I1
I38
tp4293
I8
s(I19
I23
tp4294
I8
s(I2
I37
tp4295
I8
s(I7
I8
tp4296
I11
s(I22
I32
tp4297
I8
s(I20
I16
tp4298
I8
s(I18
I0
tp4299
I11
s(I16
I16
tp4300
I11
s(I6
I39
tp4301
I11
s(I21
I21
tp4302
I8
s(I17
I29
tp4303
I8
s(I7
I38
tp4304
I8
s(I22
I26
tp4305
I8
s(I18
I13
tp4306
I8
s(I18
I26
tp4307
I8
s(I23
I3
tp4308
I8
s(I12
I36
tp4309
I8
s(I23
I16
tp4310
I8
s(I24
I31
tp4311
I11
s(I12
I2
tp4312
I8
s(I13
I3
tp4313
I8
s(I11
I31
tp4314
I11
s(I24
I5
tp4315
I11
s(I1
I5
tp4316
I8
s(I2
I2
tp4317
I8
s(I14
I34
tp4318
I8
s(I6
I4
tp4319
I8
s(I19
I28
tp4320
I8
s(I7
I1
tp4321
I8
s(I20
I31
tp4322
I8
s(I3
I33
tp4323
I8
s(I23
I34
tp4324
I8
s(I21
I30
tp4325
I8
s(I19
I2
tp4326
I8
s(I17
I22
tp4327
I8
s(I7
I31
tp4328
I11
s(I22
I29
tp4329
I8
s(I20
I5
tp4330
I8
s(I18
I21
tp4331
I8
s(I23
I24
tp4332
I8
s(I12
I35
tp4333
I8
s(I8
I3
tp4334
I8
s(I13
I34
tp4335
I8
s(I23
I19
tp4336
I8
s(I9
I2
tp4337
I8
s(I0
I31
tp4338
I11
s(I24
I12
tp4339
I11
s(I14
I3
tp4340
I8
s(I14
I37
tp4341
I8
s(I3
I0
tp4342
I11
s(I15
I32
tp4343
I8
s(I17
I8
tp4344
I8
s(I19
I37
tp4345
I8
s(I23
I37
tp4346
I8
s(I20
I38
tp4347
I8
s(I3
I38
tp4348
I8
s(I16
I14
tp4349
I11
s(I21
I39
tp4350
I11
s(I4
I33
tp4351
I8
s(I19
I11
tp4352
I8
s(I17
I15
tp4353
I8
s(I22
I20
tp4354
I8
s(I5
I36
tp4355
I8
s(I20
I12
tp4356
I8
s(I18
I12
tp4357
I8
s(I23
I17
tp4358
I8
s(I21
I1
tp4359
I8
s(I10
I38
tp4360
I8
s(I17
I33
tp4361
I8
s(I22
I14
tp4362
I8
s(I18
I15
tp4363
I8
s(I18
I38
tp4364
I8
s(I23
I15
tp4365
I8
s(I10
I0
tp4366
I11
s(I23
I22
tp4367
I8
s(I24
I19
tp4368
I11
s(I15
I3
tp4369
I8
s(I11
I35
tp4370
I8
s(I4
I2
tp4371
I8
s(I0
I34
tp4372
I11
s(I5
I3
tp4373
I8
s(I1
I35
tp4374
I8
s(I16
I5
tp4375
I8
s(I6
I8
tp4376
I11
s(I21
I32
tp4377
I8
s(I19
I16
tp4378
I8
s(I17
I0
tp4379
I11
s(I20
I11
tp4380
I8
s(I18
I7
tp4381
I8
s(I16
I27
tp4382
I11
s(I6
I34
tp4383
I8
s(I21
I10
tp4384
I8
s(I10
I33
tp4385
I8
s(I17
I26
tp4386
I8
s(I22
I1
tp4387
I8
s(I18
I33
tp4388
I8
s(I23
I4
tp4389
I8
s(I11
I2
tp4390
I8
s(I24
I26
tp4391
I11
s(I12
I5
tp4392
I8
s(I15
I8
tp4393
I11
s(I13
I8
tp4394
I11
s(I0
I3
tp4395
I11
s(I24
I0
tp4396
I11
s(I20
I22
tp4397
I8
s(I1
I2
tp4398
I8
s(I23
I21
tp4399
I8
s(I24
I38
tp4400
I11
s(I1
I36
tp4401
I8
s(I6
I3
tp4402
I8
s(I17
I10
tp4403
I8
s(I19
I25
tp4404
I8
s(I2
I35
tp4405
I8
s(I22
I38
tp4406
I8
s(I20
I18
tp4407
I8
s(I23
I39
tp4408
I11
s(I6
I37
tp4409
I8
s(I21
I19
tp4410
I8
s(I17
I19
tp4411
I8
s(I7
I32
tp4412
I8
s(I22
I24
tp4413
I8
s(I11
I37
tp4414
I8
s(I18
I24
tp4415
I8
s(I23
I29
tp4416
I8
s(I12
I38
tp4417
I8
s(I13
I39
tp4418
I11
s(I9
I31
tp4419
I11
s(I13
I1
tp4420
I8
s(I24
I7
tp4421
I11
s(I23
I20
tp4422
I8
s(I2
I0
tp4423
I11
s(I14
I32
tp4424
I8
s(I15
I37
tp4425
I8
s(I19
I30
tp4426
I8
sa(dp4427
(I24
I30
tp4428
I60
s(I5
I31
tp4429
I60
s(I16
I9
tp4430
I60
s(I16
I29
tp4431
I60
s(I0
I7
tp4432
I60
s(I16
I28
tp4433
I60
s(I12
I31
tp4434
I60
s(I24
I11
tp4435
I60
s(I5
I8
tp4436
I60
s(I4
I0
tp4437
I60
s(I10
I8
tp4438
I60
s(I9
I0
tp4439
I60
s(I0
I32
tp4440
I60
s(I14
I31
tp4441
I60
s(I24
I27
tp4442
I60
s(I16
I22
tp4443
I60
s(I9
I31
tp4444
I60
s(I0
I4
tp4445
I60
s(I16
I25
tp4446
I60
s(I9
I39
tp4447
I60
s(I16
I15
tp4448
I60
s(I24
I39
tp4449
I11
s(I19
I39
tp4450
I60
s(I6
I0
tp4451
I60
s(I11
I0
tp4452
I60
s(I24
I24
tp4453
I60
s(I22
I39
tp4454
I60
s(I16
I12
tp4455
I60
s(I7
I0
tp4456
I60
s(I16
I19
tp4457
I60
s(I24
I4
tp4458
I60
s(I1
I31
tp4459
I60
s(I0
I1
tp4460
I60
s(I24
I17
tp4461
I60
s(I17
I39
tp4462
I60
s(I12
I39
tp4463
I60
s(I0
I39
tp4464
I11
s(I24
I36
tp4465
I60
s(I3
I39
tp4466
I60
s(I16
I13
tp4467
I60
s(I14
I8
tp4468
I60
s(I13
I0
tp4469
I60
s(I12
I8
tp4470
I60
s(I18
I0
tp4471
I60
s(I16
I16
tp4472
I60
s(I6
I39
tp4473
I60
s(I16
I26
tp4474
I60
s(I8
I31
tp4475
I60
s(I0
I36
tp4476
I60
s(I24
I33
tp4477
I60
s(I24
I10
tp4478
I60
s(I4
I31
tp4479
I60
s(I24
I31
tp4480
I60
s(I16
I10
tp4481
I60
s(I11
I31
tp4482
I60
s(I15
I0
tp4483
I60
s(I16
I27
tp4484
I60
s(I20
I0
tp4485
I60
s(I10
I39
tp4486
I60
s(I0
I33
tp4487
I60
s(I16
I17
tp4488
I60
s(I24
I28
tp4489
I60
s(I16
I23
tp4490
I60
s(I16
I31
tp4491
I60
s(I0
I5
tp4492
I60
s(I7
I31
tp4493
I60
s(I1
I0
tp4494
I60
s(I0
I8
tp4495
I11
s(I22
I0
tp4496
I60
s(I24
I21
tp4497
I60
s(I24
I25
tp4498
I60
s(I8
I39
tp4499
I60
s(I16
I20
tp4500
I60
s(I0
I2
tp4501
I60
s(I16
I39
tp4502
I60
s(I24
I2
tp4503
I60
s(I11
I39
tp4504
I60
s(I4
I8
tp4505
I60
s(I3
I0
tp4506
I60
s(I2
I8
tp4507
I60
s(I9
I8
tp4508
I60
s(I8
I0
tp4509
I60
s(I24
I37
tp4510
I60
s(I24
I8
tp4511
I60
s(I16
I14
tp4512
I60
s(I21
I39
tp4513
I60
s(I24
I22
tp4514
I60
s(I24
I9
tp4515
I60
s(I7
I8
tp4516
I60
s(I24
I14
tp4517
I60
s(I3
I31
tp4518
I60
s(I0
I37
tp4519
I60
s(I15
I39
tp4520
I60
s(I5
I0
tp4521
I60
s(I10
I0
tp4522
I60
s(I24
I20
tp4523
I60
s(I24
I34
tp4524
I60
s(I2
I39
tp4525
I60
s(I16
I11
tp4526
I60
s(I16
I30
tp4527
I60
s(I5
I39
tp4528
I60
s(I15
I31
tp4529
I60
s(I24
I15
tp4530
I60
s(I24
I1
tp4531
I60
s(I15
I8
tp4532
I60
s(I0
I34
tp4533
I60
s(I24
I29
tp4534
I60
s(I6
I8
tp4535
I60
s(I12
I0
tp4536
I60
s(I11
I8
tp4537
I60
s(I23
I39
tp4538
I60
s(I17
I0
tp4539
I60
s(I16
I8
tp4540
I60
s(I6
I31
tp4541
I60
s(I0
I6
tp4542
I60
s(I24
I3
tp4543
I60
s(I16
I21
tp4544
I60
s(I13
I31
tp4545
I60
s(I24
I19
tp4546
I60
s(I10
I31
tp4547
I60
s(I24
I26
tp4548
I60
s(I24
I13
tp4549
I60
s(I14
I0
tp4550
I60
s(I13
I8
tp4551
I60
s(I19
I0
tp4552
I60
s(I0
I3
tp4553
I60
s(I16
I24
tp4554
I60
s(I24
I0
tp4555
I11
s(I24
I38
tp4556
I60
s(I20
I39
tp4557
I60
s(I8
I8
tp4558
I60
s(I24
I23
tp4559
I60
s(I24
I6
tp4560
I60
s(I16
I18
tp4561
I60
s(I0
I0
tp4562
I11
s(I0
I31
tp4563
I11
s(I21
I0
tp4564
I60
s(I2
I31
tp4565
I60
s(I24
I12
tp4566
I60
s(I14
I39
tp4567
I60
s(I18
I39
tp4568
I60
s(I0
I38
tp4569
I60
s(I24
I35
tp4570
I60
s(I13
I39
tp4571
I60
s(I1
I39
tp4572
I60
s(I24
I16
tp4573
I60
s(I24
I18
tp4574
I60
s(I4
I39
tp4575
I60
s(I24
I5
tp4576
I60
s(I24
I7
tp4577
I60
s(I7
I39
tp4578
I60
s(I3
I8
tp4579
I60
s(I2
I0
tp4580
I60
s(I1
I8
tp4581
I60
s(I16
I0
tp4582
I60
s(I23
I0
tp4583
I60
s(I0
I35
tp4584
I60
s(I24
I32
tp4585
I60
sa(dp4586
(I24
I9
tp4587
I60
s(I24
I30
tp4588
I60
s(I16
I11
tp4589
I60
s(I24
I8
tp4590
I11
s(I24
I29
tp4591
I60
s(I16
I10
tp4592
I60
s(I16
I31
tp4593
I11
s(I24
I28
tp4594
I60
s(I16
I9
tp4595
I60
s(I16
I30
tp4596
I60
s(I24
I27
tp4597
I60
s(I16
I8
tp4598
I11
s(I16
I29
tp4599
I60
s(I16
I28
tp4600
I60
s(I16
I27
tp4601
I60
s(I24
I12
tp4602
I60
s(I24
I11
tp4603
I60
s(I24
I10
tp4604
I60
s(I24
I31
tp4605
I11
s(I16
I12
tp4606
I60
sa(dp4607
(I16
I11
tp4608
I60
s(I24
I29
tp4609
I60
s(I16
I10
tp4610
I60
s(I24
I28
tp4611
I60
s(I24
I27
tp4612
I60
s(I16
I29
tp4613
I60
s(I16
I28
tp4614
I60
s(I16
I27
tp4615
I60
s(I24
I12
tp4616
I60
s(I24
I11
tp4617
I60
s(I24
I10
tp4618
I60
s(I16
I12
tp4619
I60
sa(dp4620
(I20
I25
tp4621
I60
s(I24
I17
tp4622
I60
s(I16
I28
tp4623
I60
s(I22
I19
tp4624
I60
s(I17
I25
tp4625
I60
s(I23
I26
tp4626
I60
s(I16
I19
tp4627
I60
s(I24
I27
tp4628
I60
s(I19
I14
tp4629
I60
s(I16
I22
tp4630
I60
s(I17
I23
tp4631
I60
s(I16
I25
tp4632
I60
s(I21
I12
tp4633
I60
s(I23
I25
tp4634
I60
s(I16
I15
tp4635
I60
s(I19
I24
tp4636
I60
s(I24
I24
tp4637
I60
s(I19
I13
tp4638
I60
s(I17
I13
tp4639
I60
s(I24
I11
tp4640
I60
s(I20
I14
tp4641
I60
s(I23
I19
tp4642
I60
s(I22
I25
tp4643
I60
s(I21
I15
tp4644
I60
s(I18
I25
tp4645
I60
s(I22
I12
tp4646
I60
s(I19
I23
tp4647
I60
s(I24
I21
tp4648
I60
s(I21
I24
tp4649
I60
s(I20
I16
tp4650
I60
s(I16
I16
tp4651
I60
s(I22
I23
tp4652
I60
s(I21
I21
tp4653
I60
s(I18
I15
tp4654
I60
s(I23
I22
tp4655
I60
s(I22
I26
tp4656
I60
s(I18
I26
tp4657
I60
s(I16
I14
tp4658
I60
s(I23
I12
tp4659
I60
s(I20
I26
tp4660
I60
s(I24
I18
tp4661
I60
s(I21
I27
tp4662
I60
s(I20
I21
tp4663
I60
s(I22
I16
tp4664
I60
s(I18
I16
tp4665
I60
s(I17
I24
tp4666
I60
s(I23
I21
tp4667
I60
s(I24
I28
tp4668
I60
s(I19
I17
tp4669
I60
s(I24
I15
tp4670
I60
s(I17
I22
tp4671
I60
s(I16
I26
tp4672
I60
s(I18
I21
tp4673
I60
s(I17
I27
tp4674
I60
s(I23
I24
tp4675
I60
s(I16
I13
tp4676
I60
s(I23
I17
tp4677
I60
s(I19
I27
tp4678
I60
s(I24
I25
tp4679
I60
s(I19
I12
tp4680
I60
s(I17
I12
tp4681
I60
s(I16
I20
tp4682
I60
s(I21
I17
tp4683
I60
s(I20
I15
tp4684
I60
s(I17
I17
tp4685
I60
s(I23
I18
tp4686
I60
s(I21
I14
tp4687
I60
s(I18
I22
tp4688
I60
s(I22
I13
tp4689
I60
s(I19
I22
tp4690
I60
s(I24
I22
tp4691
I60
s(I20
I17
tp4692
I60
s(I17
I15
tp4693
I60
s(I16
I17
tp4694
I60
s(I22
I20
tp4695
I60
s(I20
I12
tp4696
I60
s(I18
I12
tp4697
I60
s(I24
I14
tp4698
I60
s(I22
I27
tp4699
I60
s(I18
I27
tp4700
I60
s(I22
I14
tp4701
I60
s(I23
I15
tp4702
I60
s(I16
I12
tp4703
I60
s(I20
I27
tp4704
I60
s(I19
I21
tp4705
I60
s(I16
I11
tp4706
I60
s(I21
I26
tp4707
I60
s(I20
I22
tp4708
I60
s(I22
I17
tp4709
I60
s(I21
I23
tp4710
I60
s(I18
I17
tp4711
I60
s(I23
I20
tp4712
I60
s(I20
I24
tp4713
I60
s(I19
I16
tp4714
I60
s(I24
I16
tp4715
I60
s(I17
I21
tp4716
I60
s(I16
I27
tp4717
I60
s(I22
I18
tp4718
I60
s(I17
I26
tp4719
I60
s(I23
I27
tp4720
I60
s(I24
I19
tp4721
I60
s(I19
I26
tp4722
I60
s(I24
I26
tp4723
I60
s(I19
I15
tp4724
I60
s(I24
I13
tp4725
I60
s(I21
I16
tp4726
I60
s(I17
I16
tp4727
I60
s(I16
I24
tp4728
I60
s(I21
I13
tp4729
I60
s(I16
I23
tp4730
I60
s(I19
I25
tp4731
I60
s(I24
I23
tp4732
I60
s(I17
I14
tp4733
I60
s(I16
I18
tp4734
I60
s(I22
I21
tp4735
I60
s(I20
I13
tp4736
I60
s(I18
I23
tp4737
I60
s(I18
I13
tp4738
I60
s(I23
I16
tp4739
I60
s(I22
I24
tp4740
I60
s(I18
I24
tp4741
I60
s(I24
I12
tp4742
I60
s(I22
I15
tp4743
I60
s(I23
I14
tp4744
I60
s(I16
I21
tp4745
I60
s(I24
I20
tp4746
I60
s(I21
I25
tp4747
I60
s(I20
I23
tp4748
I60
s(I22
I22
tp4749
I60
s(I21
I22
tp4750
I60
s(I18
I14
tp4751
I60
s(I23
I23
tp4752
I60
s(I23
I13
tp4753
I60
sa(dp4754
(I22
I23
tp4755
I60
s(I18
I15
tp4756
I11
s(I23
I22
tp4757
I60
s(I17
I20
tp4758
I60
s(I19
I15
tp4759
I11
s(I16
I21
tp4760
I11
s(I21
I16
tp4761
I60
s(I24
I22
tp4762
I11
s(I17
I16
tp4763
I60
s(I16
I17
tp4764
I11
s(I24
I18
tp4765
I11
s(I18
I16
tp4766
I60
s(I22
I16
tp4767
I60
s(I16
I22
tp4768
I11
s(I23
I21
tp4769
I60
s(I17
I23
tp4770
I60
s(I16
I18
tp4771
I11
s(I18
I23
tp4772
I60
s(I24
I19
tp4773
I11
s(I17
I19
tp4774
I60
s(I23
I16
tp4775
I60
s(I22
I24
tp4776
I11
s(I23
I19
tp4777
I60
s(I18
I24
tp4778
I11
s(I21
I23
tp4779
I60
s(I22
I15
tp4780
I11
s(I23
I20
tp4781
I60
s(I17
I22
tp4782
I60
s(I16
I19
tp4783
I11
s(I24
I20
tp4784
I11
s(I17
I18
tp4785
I60
s(I19
I24
tp4786
I11
s(I21
I15
tp4787
I11
s(I24
I17
tp4788
I11
s(I20
I24
tp4789
I11
s(I19
I16
tp4790
I60
s(I23
I17
tp4791
I60
s(I23
I23
tp4792
I60
s(I17
I21
tp4793
I60
s(I21
I24
tp4794
I11
s(I16
I20
tp4795
I11
s(I19
I23
tp4796
I60
s(I20
I15
tp4797
I11
s(I24
I21
tp4798
I11
s(I17
I17
tp4799
I60
s(I23
I18
tp4800
I60
sa(dp4801
(I18
I22
tp4802
I60
s(I22
I23
tp4803
I60
s(I23
I22
tp4804
I60
s(I17
I20
tp4805
I60
s(I19
I15
tp4806
I11
s(I16
I21
tp4807
I11
s(I21
I16
tp4808
I60
s(I17
I16
tp4809
I11
s(I18
I23
tp4810
I60
s(I24
I18
tp4811
I11
s(I23
I17
tp4812
I60
s(I22
I16
tp4813
I60
s(I18
I16
tp4814
I60
s(I23
I21
tp4815
I60
s(I17
I23
tp4816
I11
s(I16
I18
tp4817
I11
s(I24
I19
tp4818
I11
s(I17
I19
tp4819
I60
s(I23
I16
tp4820
I11
s(I23
I19
tp4821
I60
s(I22
I17
tp4822
I60
s(I21
I23
tp4823
I60
s(I18
I17
tp4824
I60
s(I19
I24
tp4825
I11
s(I17
I22
tp4826
I60
s(I16
I19
tp4827
I11
s(I24
I20
tp4828
I11
s(I17
I18
tp4829
I60
s(I23
I20
tp4830
I60
s(I20
I23
tp4831
I60
s(I21
I15
tp4832
I11
s(I20
I24
tp4833
I11
s(I19
I16
tp4834
I60
s(I22
I22
tp4835
I60
s(I23
I23
tp4836
I11
s(I17
I21
tp4837
I60
s(I21
I24
tp4838
I11
s(I16
I20
tp4839
I11
s(I19
I23
tp4840
I60
s(I20
I15
tp4841
I11
s(I24
I21
tp4842
I11
s(I17
I17
tp4843
I60
s(I23
I18
tp4844
I60
s(I20
I16
tp4845
I60
sa(dp4846
(I18
I22
tp4847
I60
s(I22
I23
tp4848
I11
s(I21
I16
tp4849
I11
s(I23
I22
tp4850
I11
s(I17
I20
tp4851
I11
s(I22
I19
tp4852
I60
s(I18
I19
tp4853
I60
s(I19
I22
tp4854
I60
s(I20
I17
tp4855
I60
s(I21
I21
tp4856
I60
s(I18
I23
tp4857
I11
s(I22
I20
tp4858
I60
s(I19
I18
tp4859
I60
s(I19
I17
tp4860
I60
s(I23
I17
tp4861
I11
s(I22
I16
tp4862
I11
s(I18
I16
tp4863
I11
s(I23
I21
tp4864
I11
s(I18
I20
tp4865
I60
s(I22
I21
tp4866
I60
s(I19
I21
tp4867
I60
s(I17
I19
tp4868
I11
s(I20
I22
tp4869
I60
s(I22
I17
tp4870
I60
s(I21
I23
tp4871
I11
s(I18
I17
tp4872
I60
s(I23
I20
tp4873
I11
s(I17
I22
tp4874
I11
s(I19
I23
tp4875
I11
s(I18
I21
tp4876
I60
s(I21
I18
tp4877
I60
s(I17
I18
tp4878
I11
s(I23
I19
tp4879
I11
s(I20
I23
tp4880
I11
s(I22
I22
tp4881
I60
s(I19
I16
tp4882
I11
s(I17
I21
tp4883
I11
s(I22
I18
tp4884
I60
s(I21
I22
tp4885
I60
s(I18
I18
tp4886
I60
s(I21
I17
tp4887
I60
s(I17
I17
tp4888
I11
s(I23
I18
tp4889
I11
s(I20
I16
tp4890
I11
sa(dp4891
(I19
I19
tp4892
I60
s(I20
I20
tp4893
I60
s(I22
I19
tp4894
I11
s(I18
I19
tp4895
I11
s(I19
I22
tp4896
I11
s(I20
I17
tp4897
I11
s(I21
I21
tp4898
I60
s(I22
I20
tp4899
I11
s(I19
I18
tp4900
I60
s(I20
I21
tp4901
I60
s(I21
I18
tp4902
I60
s(I20
I18
tp4903
I60
s(I18
I20
tp4904
I11
s(I22
I21
tp4905
I11
s(I21
I19
tp4906
I60
s(I20
I22
tp4907
I11
s(I19
I17
tp4908
I11
s(I21
I20
tp4909
I60
s(I20
I19
tp4910
I60
s(I18
I21
tp4911
I11
s(I19
I20
tp4912
I60
s(I21
I22
tp4913
I11
s(I22
I18
tp4914
I11
s(I18
I18
tp4915
I11
s(I21
I17
tp4916
I11
s(I19
I21
tp4917
I60
sa(dp4918
(I20
I19
tp4919
I61
sa(dp4920
(I20
I19
tp4921
I61
sa(dp4922
(I20
I21
tp4923
I59
s(I20
I20
tp4924
I59
s(I20
I19
tp4925
I61
sa(dp4926
(I20
I21
tp4927
I59
s(I20
I20
tp4928
I59
s(I20
I19
tp4929
I61
sasS'Dimensions'
p4930
(lp4931
I25
aI40
aI25
asS'Signs'
p4932
(lp4933
(dp4934
(I2
I19
tp4935
(lp4936
VEst.
p4937
aI-1
aI-1
aI-1
aI-1
aI-1
aI-1
aI-1
as(I2
I20
tp4938
(lp4939
V2014
p4940
aI-1
aI-1
aI-1
aI-1
aI-1
aI-1
aI-1
asa(dp4941
(I2
I19
tp4942
(lp4943
VCraftTown
p4944
aI-1
aI-1
aI-1
aI-1
aI-1
aI-1
aI-1
as(I2
I20
tp4945
(lp4946
VElementary
p4947
aI-1
aI-1
aI-1
aI-1
aI-1
aI-1
aI-1
asa(dp4948
a(dp4949
a(dp4950
a(dp4951
a(dp4952
a(dp4953
a(dp4954
a(dp4955
a(dp4956
a(dp4957
a(dp4958
a(dp4959
a(dp4960
a(dp4961
a(dp4962
a(dp4963
a(dp4964
a(dp4965
a(dp4966
a(dp4967
a(dp4968
a(dp4969
a(dp4970
as.